Microchip MPLAB XC8 Compiler V1.35 ()

Linker command line:

--edf=C:\Program Files (x86)\Microchip\xc8\v1.35\dat\en_msgs.txt -cs \
  -h+dist/YOURBOARD/production\nLockController.X.production.sym \
  --cmf=dist/YOURBOARD/production\nLockController.X.production.cmf -z \
  -Q18F97J60 -oC:\Users\Embedded\AppData\Local\Temp\s14g.2 \
  -Mdist/YOURBOARD/production/nLockController.X.production.map -E1 -ver=XC8 \
  -ASTACK=0535h-0e7fh -pstack=STACK -ACODE=00h-01FFF7h -ACONST=00h-01FFF7h \
  -ASMALLCONST=01000h-010FFhx495,01FF00h-01FFF7h \
  -AMEDIUMCONST=01000h-0FFFFh,011000h-01FFF7h -ACOMRAM=01h-05Fh \
  -AABS1=00h-0E7Fh,0F00h-0F5Fh -ABIGRAM=01h-0E7Fh,0F00h-0F5Fh \
  -ARAM=060h-0FFh,0100h-01FFhx13,0E00h-0E7Fh,0F00h-0F5Fh -ABANK0=060h-0FFh \
  -ABANK1=0100h-01FFh -ABANK2=0200h-02FFh -ABANK3=0300h-03FFh \
  -ABANK4=0400h-04FFh -ABANK5=0500h-05FFh -ABANK6=0600h-06FFh \
  -ABANK7=0700h-07FFh -ABANK8=0800h-08FFh -ABANK9=0900h-09FFh \
  -ABANK10=0A00h-0AFFh -ABANK11=0B00h-0BFFh -ABANK12=0C00h-0CFFh \
  -ABANK13=0D00h-0DFFh -ABANK14=0E00h-0E7Fh -ABANK15=0F00h-0F5Fh \
  -ASFR=0E80h-0EFFh,0F60h-0FFFh \
  -preset_vec=00h,intcode=08h,intcodelo=018h,powerup,init,end_init \
  -pramtop=01000h -psmallconst=SMALLCONST -pmediumconst=MEDIUMCONST \
  -pconst=CONST -AFARRAM=00h-00h -ACONFIG=01FFF8h-01FFFDh -pconfig=CONFIG \
  -pjflash_buffer=01F800h \
  -prdata=COMRAM,nvrram=COMRAM,nvbit=COMRAM,rbss=COMRAM,rbit=COMRAM \
  -pfarbss=FARRAM,fardata=FARRAM,nvFARRAM=FARRAM \
  -pintsave_regs=BIGRAM,bigbss=BIGRAM,bigdata=BIGRAM -pbss=RAM \
  -pidata=CODE,irdata=CODE,ibigdata=CODE,ifardata=CODE -prparam=COMRAM \
  C:\Users\Embedded\AppData\Local\Temp\s14g.obj \
  dist/YOURBOARD/production\nLockController.X.production.obj 

Object code version is 3.11

Machine type is 18F97J60

Call graph: (short form)




                Name                               Link     Load   Length Selector   Space Scale
C:\Users\Embedded\AppData\Local\Temp\s14g.obj
                end_init                             5E       5E        4        C       0
                reset_vec                             0        0        4        0       0
                config                            1FFF8    1FFF8        6    1FFF8       0
dist/YOURBOARD/production\nLockController.X.production.obj
                intcodelo                            18       18       46        C       0
                intcode                               8        8        6        4       0
                temp                                 44       44        1        1       1
                smallconst                         1000     1000        C      800       0
                intcode_body                       3FEA     3FEA       7E      806       0
                text142                            5074     5074       2A      806       0
                text141                            515E     515E       26      806       0
                text140                            346A     346A       C0      806       0
                text139                            4FA0     4FA0       2C      806       0
                text138                            53A8     53A8       18      806       0
                text137                            5390     5390       18      806       0
                text136                            52A2     52A2       1E      806       0
                text135                            5412     5412       14      806       0
                text133                            535E     535E       1A      806       0
                text132                            4DEA     4DEA       38      806       0
                text131                            4832     4832       56      806       0
                text130                            47DC     47DC       56      806       0
                text129                            3B78     3B78       A2      806       0
                text128                            4982     4982       50      806       0
                text127                            3762     3762       BC      806       0
                text126                            504A     504A       2A      806       0
                text125                            5138     5138       26      806       0
                text124                            4BA2     4BA2       4C      806       0
                text123                            4ABC     4ABC       4E      806       0
                text122                            5112     5112       26      806       0
                text121                            4246     4246       6C      806       0
                text120                            4B56     4B56       4C      806       0
                text119                            4930     4930       52      806       0
                text118                            4A6E     4A6E       4E      806       0
                text117                            4C36     4C36       44      806       0
                text116                            520A     520A       20      806       0
                text115                            5184     5184       24      806       0
                text114                            548C     548C        C      806       0
                text113                            50EC     50EC       26      806       0
                text112                            4782     4782       5A      806       0
                text111                            54AC     54AC        A      806       0
                text110                            5284     5284       1E      806       0
                text109                            41D2     41D2       74      806       0
                text108                            33AA     33AA       C0      806       0
                text107                            4DB0     4DB0       3A      806       0
                text106                            4B0A     4B0A       4C      806       0
                text105                            2BBE     2BBE      106      806       0
                text104                            4D3A     4D3A       3C      806       0
                text103                            54BE     54BE        8      806       0
                text102                            3E58     3E58       8C      806       0
                text101                            4F46     4F46       2E      806       0
                text100                            53FE     53FE       14      806       0
                text99                             4E22     4E22       36      806       0
                text98                             544A     544A       12      806       0
                text97                             5344     5344       1A      806       0
                text96                             4F18     4F18       2E      806       0
                text95                             532A     532A       1A      806       0
                text94                             4C7A     4C7A       42      806       0
                text93                             5020     5020       2A      806       0
                text92                             2710     2710      144      806       0
                text91                             5438     5438       12      806       0
                text90                             54D8     54D8        2      806       0
                text89                             4FF6     4FF6       2A      806       0
                text88                             431A     431A       64      806       0
                text87                             1C5A     1C5A      276      806       0
                text86                             3152     3152       D0      806       0
                text85                             3DCC     3DCC       8C      806       0
                text84                             4068     4068       7C      806       0
                text83                             3A2A     3A2A       A8      806       0
                text82                             5310     5310       1A      806       0
                text81                             2596     2596      17A      806       0
                text80                             4E8C     4E8C       30      806       0
                text79                             4726     4726       5C      806       0
                text78                             1ED0     1ED0      1DE      806       0
                text77                             4CFC     4CFC       3E      806       0
                text76                             100C     100C      664      806       0
                text75                             42B2     42B2       68      806       0
                text74                             54C6     54C6        6      806       0
                text73                             2854     2854      130      806       0
                text72                             397E     397E       AC      806       0
                text71                             2F9A     2F9A       E4      806       0
                text70                             381E     381E       B2      806       0
                text69                             2CC4     2CC4      102      806       0
                text68                             2AA2     2AA2      11C      806       0
                text67                             32E6     32E6       C4      806       0
                text66                             3222     3222       C4      806       0
                text65                             50C6     50C6       26      806       0
                text64                             2414     2414      182      806       0
                text63                             2282     2282      192      806       0
                text62                             46CA     46CA       5C      806       0
                text61                             415C     415C       76      806       0
                text60                             437E     437E       62      806       0
                text59                             2DC6     2DC6       F0      806       0
                text58                             4BEE     4BEE       48      806       0
                text57                             1670     1670      314      806       0
                text56                             2EB6     2EB6       E4      806       0
                text55                             48DC     48DC       54      806       0
                text54                             43E0     43E0       60      806       0
                text53                             4EEA     4EEA       2E      806       0
                text52                             40E4     40E4       78      806       0
                text51                             3D40     3D40       8C      806       0
                text50                             3EE4     3EE4       88      806       0
                text49                             20AE     20AE      1D4      806       0
                text48                             54B6     54B6        8      806       0
                text47                             3F6C     3F6C       7E      806       0
                text46                             44FC     44FC       5E      806       0
                text45                             35E8     35E8       BE      806       0
                text44                             1984     1984      2D6      806       0
                text43                             5266     5266       1E      806       0
                text42                             4A20     4A20       4E      806       0
                text41                             3C1A     3C1A       9A      806       0
                text40                             38D0     38D0       AE      806       0
                text39                             4888     4888       54      806       0
                text38                             54A2     54A2        A      806       0
                text37                             449E     449E       5E      806       0
                text36                             3AD2     3AD2       A6      806       0
                text35                             36A6     36A6       BC      806       0
                text34                             5248     5248       1E      806       0
                text33                             51A8     51A8       22      806       0
                text32                             54D4     54D4        4      806       0
                text31                             466E     466E       5C      806       0
                text30                             51EA     51EA       20      806       0
                text29                             4D76     4D76       3A      806       0
                text28                             547C     547C       10      806       0
                text27                             4612     4612       5C      806       0
                text26                             45B6     45B6       5C      806       0
                text25                             4F74     4F74       2C      806       0
                text24                             522A     522A       1E      806       0
                text23                             52F6     52F6       1A      806       0
                text22                             5426     5426       12      806       0
                text21                             5498     5498        A      806       0
                text20                             4440     4440       5E      806       0
                text19                             54D0     54D0        4      806       0
                text18                             4FCC     4FCC       2A      806       0
                text17                             4CBC     4CBC       40      806       0
                text16                             54CC     54CC        4      806       0
                text15                             546C     546C       10      806       0
                text14                             455A     455A       5C      806       0
                text13                             509E     509E       28      806       0
                text12                             52DC     52DC       1A      806       0
                text11                             52C0     52C0       1C      806       0
                text10                             5378     5378       18      806       0
                text9                              53EA     53EA       14      806       0
                text8                              4E58     4E58       34      806       0
                text7                              2984     2984      11E      806       0
                text6                              4EBC     4EBC       2E      806       0
                text5                              352A     352A       BE      806       0
                text4                              53D6     53D6       14      806       0
                text3                              49D2     49D2       4E      806       0
                text2                              545C     545C       10      806       0
                text1                              53C0     53C0       16      806       0
                text0                              307E     307E       D4      806       0
                cstackCOMRAM                          1        1       28        1       1
                cstackBANK0                          60       60       67       60       1
                cstackBANK1                         1E8      1E8        F      100       1
                cstackBANK2                         2E6      2E6       14      200       1
                bssBIGRAM                           341      341      1F4      341       1
                bssBANK3                            300      300       41      300       1
                bssBANK2                            200      200       E6      200       1
                dataBANK1                           1C8      1C8       20      100       1
                bssBANK1                            100      100       C8      100       1
                bssBANK0                             C7       C7       38       60       1
                dataCOMRAM                           43       43        1        1       1
                bssCOMRAM                            29       29       1A        1       1
                cinit                              3CB4     3CB4       8C      806       0
                idataBANK1                         51CA     51CA       20      806       0
                idataCOMRAM                        54DA     54DA        1      806       0

TOTAL           Name                               Link     Load   Length     Space
        CLASS   STACK          

        CLASS   CODE           
                end_init                             5E       5E        4         0
                intcodelo                            18       18       46         0
                intcode                               8        8        6         0
                reset_vec                             0        0        4         0
                intcode_body                       3FEA     3FEA       7E         0
                text142                            5074     5074       2A         0
                text141                            515E     515E       26         0
                text140                            346A     346A       C0         0
                text139                            4FA0     4FA0       2C         0
                text138                            53A8     53A8       18         0
                text137                            5390     5390       18         0
                text136                            52A2     52A2       1E         0
                text135                            5412     5412       14         0
                text133                            535E     535E       1A         0
                text132                            4DEA     4DEA       38         0
                text131                            4832     4832       56         0
                text130                            47DC     47DC       56         0
                text129                            3B78     3B78       A2         0
                text128                            4982     4982       50         0
                text127                            3762     3762       BC         0
                text126                            504A     504A       2A         0
                text125                            5138     5138       26         0
                text124                            4BA2     4BA2       4C         0
                text123                            4ABC     4ABC       4E         0
                text122                            5112     5112       26         0
                text121                            4246     4246       6C         0
                text120                            4B56     4B56       4C         0
                text119                            4930     4930       52         0
                text118                            4A6E     4A6E       4E         0
                text117                            4C36     4C36       44         0
                text116                            520A     520A       20         0
                text115                            5184     5184       24         0
                text114                            548C     548C        C         0
                text113                            50EC     50EC       26         0
                text112                            4782     4782       5A         0
                text111                            54AC     54AC        A         0
                text110                            5284     5284       1E         0
                text109                            41D2     41D2       74         0
                text108                            33AA     33AA       C0         0
                text107                            4DB0     4DB0       3A         0
                text106                            4B0A     4B0A       4C         0
                text105                            2BBE     2BBE      106         0
                text104                            4D3A     4D3A       3C         0
                text103                            54BE     54BE        8         0
                text102                            3E58     3E58       8C         0
                text101                            4F46     4F46       2E         0
                text100                            53FE     53FE       14         0
                text99                             4E22     4E22       36         0
                text98                             544A     544A       12         0
                text97                             5344     5344       1A         0
                text96                             4F18     4F18       2E         0
                text95                             532A     532A       1A         0
                text94                             4C7A     4C7A       42         0
                text93                             5020     5020       2A         0
                text92                             2710     2710      144         0
                text91                             5438     5438       12         0
                text90                             54D8     54D8        2         0
                text89                             4FF6     4FF6       2A         0
                text88                             431A     431A       64         0
                text87                             1C5A     1C5A      276         0
                text86                             3152     3152       D0         0
                text85                             3DCC     3DCC       8C         0
                text84                             4068     4068       7C         0
                text83                             3A2A     3A2A       A8         0
                text82                             5310     5310       1A         0
                text81                             2596     2596      17A         0
                text80                             4E8C     4E8C       30         0
                text79                             4726     4726       5C         0
                text78                             1ED0     1ED0      1DE         0
                text77                             4CFC     4CFC       3E         0
                text76                             100C     100C      664         0
                text75                             42B2     42B2       68         0
                text74                             54C6     54C6        6         0
                text73                             2854     2854      130         0
                text72                             397E     397E       AC         0
                text71                             2F9A     2F9A       E4         0
                text70                             381E     381E       B2         0
                text69                             2CC4     2CC4      102         0
                text68                             2AA2     2AA2      11C         0
                text67                             32E6     32E6       C4         0
                text66                             3222     3222       C4         0
                text65                             50C6     50C6       26         0
                text64                             2414     2414      182         0
                text63                             2282     2282      192         0
                text62                             46CA     46CA       5C         0
                text61                             415C     415C       76         0
                text60                             437E     437E       62         0
                text59                             2DC6     2DC6       F0         0
                text58                             4BEE     4BEE       48         0
                text57                             1670     1670      314         0
                text56                             2EB6     2EB6       E4         0
                text55                             48DC     48DC       54         0
                text54                             43E0     43E0       60         0
                text53                             4EEA     4EEA       2E         0
                text52                             40E4     40E4       78         0
                text51                             3D40     3D40       8C         0
                text50                             3EE4     3EE4       88         0
                text49                             20AE     20AE      1D4         0
                text48                             54B6     54B6        8         0
                text47                             3F6C     3F6C       7E         0
                text46                             44FC     44FC       5E         0
                text45                             35E8     35E8       BE         0
                text44                             1984     1984      2D6         0
                text43                             5266     5266       1E         0
                text42                             4A20     4A20       4E         0
                text41                             3C1A     3C1A       9A         0
                text40                             38D0     38D0       AE         0
                text39                             4888     4888       54         0
                text38                             54A2     54A2        A         0
                text37                             449E     449E       5E         0
                text36                             3AD2     3AD2       A6         0
                text35                             36A6     36A6       BC         0
                text34                             5248     5248       1E         0
                text33                             51A8     51A8       22         0
                text32                             54D4     54D4        4         0
                text31                             466E     466E       5C         0
                text30                             51EA     51EA       20         0
                text29                             4D76     4D76       3A         0
                text28                             547C     547C       10         0
                text27                             4612     4612       5C         0
                text26                             45B6     45B6       5C         0
                text25                             4F74     4F74       2C         0
                text24                             522A     522A       1E         0
                text23                             52F6     52F6       1A         0
                text22                             5426     5426       12         0
                text21                             5498     5498        A         0
                text20                             4440     4440       5E         0
                text19                             54D0     54D0        4         0
                text18                             4FCC     4FCC       2A         0
                text17                             4CBC     4CBC       40         0
                text16                             54CC     54CC        4         0
                text15                             546C     546C       10         0
                text14                             455A     455A       5C         0
                text13                             509E     509E       28         0
                text12                             52DC     52DC       1A         0
                text11                             52C0     52C0       1C         0
                text10                             5378     5378       18         0
                text9                              53EA     53EA       14         0
                text8                              4E58     4E58       34         0
                text7                              2984     2984      11E         0
                text6                              4EBC     4EBC       2E         0
                text5                              352A     352A       BE         0
                text4                              53D6     53D6       14         0
                text3                              49D2     49D2       4E         0
                text2                              545C     545C       10         0
                text1                              53C0     53C0       16         0
                text0                              307E     307E       D4         0
                cinit                              3CB4     3CB4       8C         0
                idataBANK1                         51CA     51CA       20         0
                idataCOMRAM                        54DA     54DA        1         0

        CLASS   CONST          

        CLASS   SMALLCONST     
                smallconst                         1000     1000        C         0

        CLASS   MEDIUMCONST    

        CLASS   COMRAM         
                temp                                 44       44        1         1
                cstackCOMRAM                          1        1       28         1
                dataCOMRAM                           43       43        1         1
                bssCOMRAM                            29       29       1A         1

        CLASS   ABS1           

        CLASS   BIGRAM         
                bssBIGRAM                           341      341      1F4         1

        CLASS   RAM            

        CLASS   BANK0          
                cstackBANK0                          60       60       67         1
                bssBANK0                             C7       C7       38         1

        CLASS   BANK1          
                cstackBANK1                         1E8      1E8        F         1
                dataBANK1                           1C8      1C8       20         1
                bssBANK1                            100      100       C8         1

        CLASS   BANK2          
                cstackBANK2                         2E6      2E6       14         1
                bssBANK2                            200      200       E6         1

        CLASS   BANK3          
                bssBANK3                            300      300       41         1

        CLASS   BANK4          

        CLASS   BANK5          

        CLASS   BANK6          

        CLASS   BANK7          

        CLASS   BANK8          

        CLASS   BANK9          

        CLASS   BANK10         

        CLASS   BANK11         

        CLASS   BANK12         

        CLASS   BANK13         

        CLASS   BANK14         

        CLASS   BANK15         

        CLASS   SFR            

        CLASS   FARRAM         

        CLASS   CONFIG         
                config                            1FFF8    1FFF8        6         0

        CLASS   IDLOC          



SEGMENTS        Name                           Load    Length   Top    Selector   Space  Class

                reset_vec                      000000  000004  000004         0       0  CODE    
                cstackCOMRAM                   000001  000044  000045         1       1  COMRAM  
                intcode                        000008  000006  00000E         4       0  CODE    
                intcodelo                      000018  00004A  000062         C       0  CODE    
                cstackBANK0                    000060  00009F  0000FF        60       1  BANK0   
                bssBANK1                       000100  0000F7  0001F7       100       1  BANK1   
                bssBANK2                       000200  0000FA  0002FA       200       1  BANK2   
                bssBANK3                       000300  000041  000341       300       1  BANK3   
                bssBIGRAM                      000341  0001F4  000535       341       1  BIGRAM  
                smallconst                     001000  00000C  00100C       800       0  SMALLCON
                text76                         00100C  0044CF  0054DB       806       0  CODE    
                config                         01FFF8  000006  01FFFE     1FFF8       0  CONFIG  


UNUSED ADDRESS RANGES

        Name                Unused          Largest block    Delta
        BANK0            000FF-000FF               1
        BANK1            001F7-001FF               9
        BANK10           00A00-00AFF             100
        BANK11           00B00-00BFF             100
        BANK12           00C00-00CFF             100
        BANK13           00D00-00DFF             100
        BANK14           00E00-00E7F              80
        BANK15           00F00-00F5F              60
        BANK2            002FA-002FF               6
        BANK5            00535-005FF              CB
        BANK6            00600-006FF             100
        BANK7            00700-007FF             100
        BANK8            00800-008FF             100
        BANK9            00900-009FF             100
        BIGRAM           00045-0005F              1B
                         000FF-000FF               1
                         001F7-001FF               9
                         002FA-002FF               6
                         00535-00E7F             94B
                         00F00-00F5F              60
        CODE             00004-00007               4
                         0000E-00017               A
                         00062-00FFF             F9E
                         054DB-1FFF7           1AB1D
        COMRAM           00045-0005F              1B
        CONST            00004-00007               4
                         0000E-00017               A
                         00062-00FFF             F9E
                         054DB-1FFF7           1AB1D
        MEDIUMCONST      054DB-0FFFF            AB25
                         11000-1FFF7            EFF8
        RAM              000FF-000FF               1
                         001F7-001FF               9
                         002FA-002FF               6
                         00535-00E7F             100
                         00F00-00F5F              60
        SFR              00E80-00EFF              80
                         00F60-00FFF              A0
        SMALLCONST       054DB-1FFF7             100
        STACK            00535-00E7F             94B

                                  Symbol Table

?_CalcIPBufferChecksum                               cstackCOMRAM  00023
?_CalcIPChecksum                                     cstackCOMRAM  0001C
?_GenerateRandomDWORD                                cstackBANK0   00070
?_GetWiegandCode                                     cstackCOMRAM  0001C
?_LFSRRand                                           cstackCOMRAM  0001C
?_MACCalcRxChecksum                                  cstackBANK0   0007D
?_MACGetArray                                        cstackCOMRAM  0001C
?_MACSetReadPtr                                      cstackCOMRAM  0001C
?_NDCGetRelayActiveTime                              cstackCOMRAM  0001C
?_ReadPHYReg                                         cstackCOMRAM  0001C
?_TickGet                                            cstackCOMRAM  0001C
?_TickGetDiv256                                      cstackCOMRAM  0001C
?_UDPGetArray                                        cstackCOMRAM  00023
?_UDPIsGetReady                                      cstackCOMRAM  00026
?_UDPIsPutReady                                      cstackCOMRAM  00025
?_UDPPutArray                                        cstackCOMRAM  00020
?___awdiv                                            cstackCOMRAM  0001C
?___lldiv                                            cstackCOMRAM  0001C
?___llmod                                            cstackCOMRAM  0001C
?___lwmod                                            cstackCOMRAM  0001F
?_swaps                                              cstackCOMRAM  0001C
?i1_TickGet                                          cstackCOMRAM  00001
ARPIsResolved@IPAddr                                 cstackCOMRAM  0001C
ARPIsResolved@MACAddr                                cstackCOMRAM  0001E
ARPProcess@Target                                    bssBANK1      00100
ARPProcess@packet                                    cstackBANK0   00060
ARPProcess@smARP                                     bssBANK1      00172
ARPPut@packet                                        cstackCOMRAM  00028
ARPResolve@IPAddr                                    cstackBANK0   00060
ARPResolve@packet                                    cstackBANK0   00072
Beep@value                                           cstackCOMRAM  00024
CalcIPBufferChecksum@Checksum                        cstackBANK0   00077
CalcIPBufferChecksum@ChunkLen                        cstackBANK0   0007B
CalcIPBufferChecksum@DataBuffer                      cstackBANK0   00060
CalcIPBufferChecksum@DataPtr                         cstackBANK0   00076
CalcIPBufferChecksum@F7587                           bssBANK1      0011C
CalcIPBufferChecksum@Start                           cstackBANK0   00074
CalcIPBufferChecksum@len                             cstackCOMRAM  00023
CalcIPChecksum@buffer                                cstackCOMRAM  00022
CalcIPChecksum@count                                 cstackCOMRAM  0001C
CalcIPChecksum@i                                     cstackCOMRAM  00020
CalcIPChecksum@sum                                   cstackCOMRAM  00024
CalcIPChecksum@val                                   cstackCOMRAM  00023
CheckKeypad@buff                                     cstackBANK2   002E6
CheckKeypad@i                                        cstackBANK2   002F2
CheckKeypad@index                                    cstackBANK2   002F8
CheckKeypad@messageSize                              cstackBANK2   002EE
CheckKeypad@stopIndex                                cstackBANK2   002F0
CheckKeypad@wiegandCode                              cstackBANK2   002F4
DHCPInit@i                                           cstackCOMRAM  0001D
DHCPTask@i                                           cstackBANK0   000AE
DelayMs@_dcnt                                        cstackCOMRAM  0001E
DelayMs@i                                            cstackCOMRAM  00022
DelayMs@ms                                           cstackCOMRAM  0001C
DoorIndicatorUpdateConfig@configData                 cstackCOMRAM  00024
DoorSwitchUpdateConfig@configData                    cstackCOMRAM  00024
FindMatchingSocket@h                                 cstackBANK0   00068
FindMatchingSocket@localIP                           cstackCOMRAM  00028
FindMatchingSocket@p                                 cstackBANK0   0006B
FindMatchingSocket@partialMatch                      cstackBANK0   00069
FindMatchingSocket@remoteNode                        cstackCOMRAM  00026
FindMatchingSocket@s                                 cstackBANK0   0006A
FormatNetBIOSName@Name                               cstackCOMRAM  00021
FormatNetBIOSName@i                                  cstackCOMRAM  00023
GenerateRandomDWORD@ADCON0Save                       cstackBANK0   0007D
GenerateRandomDWORD@ADCON2Save                       cstackBANK0   0007E
GenerateRandomDWORD@T0CONSave                        cstackBANK0   0007F
GenerateRandomDWORD@TMR0HSave                        cstackBANK0   00080
GenerateRandomDWORD@TMR0LSave                        cstackBANK0   00081
GenerateRandomDWORD@dwTotalTime                      cstackBANK0   00078
GenerateRandomDWORD@randomResult                     cstackBANK0   00084
GenerateRandomDWORD@vBitCount                        cstackBANK0   0007C
GenerateRandomDWORD@w                                cstackBANK0   00076
GenerateRandomDWORD@wLastValue                       cstackBANK0   00082
GenerateRandomDWORD@wTime                            cstackBANK0   00088
GetWiegandCode@tmp                                   cstackCOMRAM  00020
HandleConfigData@doorIndicatorPolarity               cstackBANK0   00068
HandleConfigData@doorOpenTooLongTime                 cstackBANK0   0006A
HandleConfigData@doorRelayActiveTime                 cstackBANK0   0006E
HandleConfigData@doorSwitchPolarity                  cstackBANK0   00069
HandleConfigData@doorSwitchPressedTooLongTime        cstackBANK0   0006C
ICMPProcess@dwVal                                    cstackBANK0   00089
ICMPProcess@len                                      cstackBANK0   00087
ICMPProcess@remote                                   cstackBANK0   00085
IPGetHeader@CalcChecksum                             cstackBANK0   0008D
IPGetHeader@header                                   cstackBANK0   00090
IPGetHeader@len                                      cstackBANK0   00088
IPGetHeader@localIP                                  cstackBANK0   0008F
IPGetHeader@protocol                                 cstackBANK0   00087
IPGetHeader@remote                                   cstackBANK0   00085
IPPutHeader@header                                   cstackBANK0   00065
IPPutHeader@len                                      cstackBANK0   00063
IPPutHeader@protocol                                 cstackBANK0   00062
IPPutHeader@remote                                   cstackBANK0   00060
IPSetRxBuffer@Offset                                 cstackCOMRAM  00022
InitializeBoard@F7567                                dataBANK1     001C8
InitializeBoard@a                                    cstackCOMRAM  0001F
InitializeBoard@arrayindex                           cstackBANK0   00072
InitializeBoard@macArray                             cstackBANK0   00060
InitializeBoard@macStringIndex                       cstackBANK0   00074
LFSRRand@i                                           cstackCOMRAM  0001E
LFSRSeedRand@dwSeed                                  cstackCOMRAM  0001F
LFSRSeedRand@i                                       cstackCOMRAM  00027
MACCalcRxChecksum@RDSave                             cstackBANK0   00081
MACCalcRxChecksum@len                                cstackBANK0   0007F
MACCalcRxChecksum@offset                             cstackBANK0   0007D
MACCalcRxChecksum@temp                               cstackBANK0   00083
MACDiscardRx@NewRXRDLocation                         cstackCOMRAM  0001C
MACFlush@i                                           cstackCOMRAM  00024
MACGetArray@i                                        cstackCOMRAM  00020
MACGetArray@len                                      cstackCOMRAM  0001E
MACGetArray@val                                      cstackCOMRAM  0001C
MACGetArray@w                                        cstackCOMRAM  00021
MACGetHeader@header                                  cstackBANK0   00060
MACGetHeader@remote                                  cstackCOMRAM  00026
MACGetHeader@type                                    cstackCOMRAM  00028
MACMemCopyAsync@ReadSave                             cstackBANK0   00060
MACMemCopyAsync@UpdateReadPointer                    cstackBANK0   00065
MACMemCopyAsync@UpdateWritePointer                   cstackBANK0   00064
MACMemCopyAsync@WriteSave                            cstackBANK0   00062
MACMemCopyAsync@destAddr                             cstackCOMRAM  0001D
MACMemCopyAsync@len                                  cstackCOMRAM  00021
MACMemCopyAsync@sourceAddr                           cstackCOMRAM  0001F
MACPut@val                                           cstackCOMRAM  0001C
MACPutArray@len                                      cstackCOMRAM  0001E
MACPutArray@val                                      cstackCOMRAM  0001C
MACPutHeader@dataLen                                 cstackCOMRAM  00023
MACPutHeader@remote                                  cstackCOMRAM  00020
MACPutHeader@type                                    cstackCOMRAM  00022
MACSetReadPtr@address                                cstackCOMRAM  0001C
MACSetReadPtr@oldVal                                 cstackCOMRAM  0001E
MACSetReadPtrInRx@ReadPT                             cstackCOMRAM  00020
MACSetReadPtrInRx@offset                             cstackCOMRAM  0001C
MACSetWritePtr@address                               cstackCOMRAM  0001C
MiscHexStringToByte@result                           cstackCOMRAM  0001C
MiscHexStringToByte@tmpByte                          cstackCOMRAM  0001E
MiscHexStringToByte@value                            cstackCOMRAM  0001D
ReadPHYReg@Register                                  cstackCOMRAM  0001E
ReadPHYReg@Result                                    cstackCOMRAM  0001F
SendUDPMessage@i                                     cstackBANK0   000C4
SendUDPMessage@message                               cstackBANK1   001E8
SendUDPMessage@messageSize                           cstackBANK1   001EA
SendUDPMessage@udpSocket                             cstackBANK1   001EC
SendVersionString@index                              cstackBANK1   001EE
SendVersionString@textLength                         cstackBANK1   001ED
StackInit@once                                       bssBANK1      00173
StackTask@bCurrentLinkState                          cstackBANK0   000BC
StackTask@bLastLinkState                             bssBANK1      00174
StackTask@cFrameType                                 cstackBANK0   000BB
StackTask@cIPFrameType                               cstackBANK0   000BF
StackTask@dataCount                                  cstackBANK0   000BD
StackTask@tempLocalIP                                cstackBANK0   000C0
SwapARPPacket@p                                      cstackCOMRAM  00021
SwapIPHeader@h                                       cstackCOMRAM  00021
TickGet@dw                                           cstackCOMRAM  00020
TickGetDiv256@dw                                     cstackCOMRAM  00020
UDPClose@s                                           cstackCOMRAM  0001C
UDPFlush@h                                           cstackBANK0   00085
UDPFlush@p                                           cstackBANK0   00081
UDPFlush@pseudoHeader                                cstackBANK0   0008D
UDPFlush@wChecksum                                   cstackBANK0   0007F
UDPFlush@wReadPtrSave                                cstackBANK0   0007D
UDPFlush@wUDPLength                                  cstackBANK0   00083
UDPGet@v                                             cstackCOMRAM  0001C
UDPGetArray@cData                                    cstackCOMRAM  00023
UDPGetArray@wBytesAvailable                          cstackCOMRAM  00027
UDPGetArray@wDataLen                                 cstackCOMRAM  00025
UDPInit@s                                            cstackCOMRAM  0001D
UDPIsGetReady@s                                      cstackCOMRAM  00028
UDPIsPutReady@s                                      cstackCOMRAM  00027
UDPOpenEx@NextPort                                   bssBANK1      00164
UDPOpenEx@localPort                                  cstackBANK0   00065
UDPOpenEx@p                                          cstackBANK0   0006A
UDPOpenEx@remoteHost                                 cstackBANK0   00060
UDPOpenEx@remoteHostType                             cstackBANK0   00064
UDPOpenEx@remotePort                                 cstackBANK0   00067
UDPOpenEx@s                                          cstackBANK0   00069
UDPProcess@checksums                                 cstackBANK0   00083
UDPProcess@h                                         cstackBANK0   00093
UDPProcess@len                                       cstackBANK0   00080
UDPProcess@localIP                                   cstackBANK0   0007F
UDPProcess@pseudoHeader                              cstackBANK0   00087
UDPProcess@remoteNode                                cstackBANK0   0007D
UDPProcess@s                                         cstackBANK0   00082
UDPPut@v                                             cstackCOMRAM  0001D
UDPPutArray@cData                                    cstackCOMRAM  00020
UDPPutArray@wDataLen                                 cstackCOMRAM  00022
UDPPutArray@wTemp                                    cstackCOMRAM  00024
UDPSetRxBuffer@wOffset                               cstackCOMRAM  00024
UDPSetTxBuffer@wOffset                               cstackCOMRAM  00020
UDPTask@ss                                           cstackBANK0   00092
WritePHYReg@Data                                     cstackCOMRAM  0001C
WritePHYReg@GIESave                                  cstackCOMRAM  0001F
WritePHYReg@Register                                 cstackCOMRAM  0001E
_ADCON0                                              (abs)         00FC2
_ADCON0bits                                          (abs)         00FC2
_ADCON1                                              (abs)         00FC1
_ADCON2                                              (abs)         00FC0
_ARPInit                                             text10        05378
_ARPIsResolved                                       text67        032E6
_ARPProcess                                          text105       02BBE
_ARPPut                                              text108       033AA
_ARPResolve                                          text66        03222
_ARPResolve$5917                                     cstackBANK0   0006E
_AppConfig                                           bssBANK1      00179
_Beep                                                text53        04EEA
_BeepTimerUpdate                                     text140       0346A
_Cache                                               bssBANK1      0010A
_CalcIPBufferChecksum                                text86        03152
_CalcIPChecksum                                      text85        03DCC
_CheckConfigDataWaitTimer                            text124       04BA2
_CheckConnectionResponseWaitTimer                    text123       04ABC
_CheckDoorTimer                                      text122       05112
_CheckFlashingLEDTimer                               text121       04246
_CheckHeartBeatTimer                                 text119       04930
_CheckIfFirstTimeConnection                          text38        054A2
_CheckKeypad                                         text57        01670
_CheckWaitForCodeTimer                               text56        02EB6
_CurrentPacketLocation                               bssBANK1      00166
_DHCPClient                                          bssBANK0      000D9
_DHCPClientInitializedOnce                           bssBANK1      00175
_DHCPDisable                                         text9         053EA
_DHCPEnable                                          text133       0535E
_DHCPInit                                            text104       04D3A
_DHCPIsBound                                         text103       054BE
_DHCPTask                                            text76        0100C
_DelayMs                                             text117       04C36
_DoorIndicatorGetStatus                              text48        054B6
_DoorIndicatorTimerUpdate                            text139       04FA0
_DoorIndicatorUpdateConfig                           text51        03D40
_DoorSwitchTimerUpdate                               text138       053A8
_DoorSwitchUpdateConfig                              text50        03EE4
_ECON1bits                                           (abs)         00FD2
_ECON2bits                                           (abs)         00EFE
_EDMADST                                             (abs)         00EF4
_EDMAND                                              (abs)         00EF2
_EDMAST                                              (abs)         00EF0
_EEPROMBuffer                                        bssBANK3      00321
_EIRbits                                             (abs)         00F60
_EPKTCNT                                             (abs)         00ED9
_ERDPT                                               (abs)         00F7A
_ERDPTH                                              (abs)         00F7B
_ERDPTL                                              (abs)         00F7A
_ERXND                                               (abs)         00EEA
_ERXRDPTH                                            (abs)         00EED
_ERXRDPTL                                            (abs)         00EEC
_ERXST                                               (abs)         00EE8
_ESTATbits                                           (abs)         00EFD
_ETXND                                               (abs)         00EE6
_ETXST                                               (abs)         00EE4
_EWRPT                                               (abs)         00EE2
_FindMatchingSocket                                  text69        02CC4
_Flags                                               bssCOMRAM     0003B
_FormatNetBIOSName                                   text131       04832
_GenerateRandomDWORD                                 text7         02984
_GetTickCopy                                         text126       0504A
_GetWiegandCode                                      text118       04A6E
_HandleConfigData                                    text49        020AE
_HandleConnectionResponse                            text54        043E0
_HandleReceivedBytes                                 text44        01984
_HighISR                                             intcode       00008
_ICMPProcess                                         text72        0397E
_INTCON                                              (abs)         00FF2
_INTCON2bits                                         (abs)         00FF1
_INTCON3bits                                         (abs)         00FF0
_INTCONbits                                          (abs)         00FF2
_IPGetHeader                                         text71        02F9A
_IPHeaderLen                                         bssBANK0      000CD
_IPPutHeader                                         text83        03A2A
_IPR1bits                                            (abs)         00F9F
_IPSetRxBuffer                                       text98        0544A
_InitAppConfig                                       text129       03B78
_InitStartState                                      text43        05266
_InitializeBoard                                     text127       03762
_IsDoorSwitchPressed                                 text22        05426
_KeyPressedResetIdleTimer                            text42        04A20
_LATCbits                                            (abs)         00F8B
_LATDbits                                            (abs)         00F8C
_LATFbits                                            (abs)         00F8E
_LCDText                                             bssBANK3      00300
_LFSRRand                                            text102       03E58
_LFSRSeedRand                                        text8         04E58
_LastPutSocket                                       dataBANK1     001E6
_LowISR                                              intcodelo     00018
_MAADR1                                              (abs)         00E84
_MAADR2                                              (abs)         00E85
_MAADR3                                              (abs)         00E82
_MAADR4                                              (abs)         00E83
_MAADR5                                              (abs)         00E80
_MAADR6                                              (abs)         00E81
_MABBIPG                                             (abs)         00EA4
_MACCalcRxChecksum                                   text75        042B2
_MACDiscardRx                                        text107       04DB0
_MACFlush                                            text116       0520A
_MACGet                                              text90        054D8
_MACGetArray                                         text106       04B0A
_MACGetHeader                                        text70        0381E
_MACInit                                             text5         0352A
_MACIsLinked                                         text100       053FE
_MACIsMemCopyDone                                    text74        054C6
_MACIsTxReady                                        text115       05184
_MACMemCopyAsync                                     text73        02854
_MACON1                                              (abs)         00EA0
_MACON3                                              (abs)         00EA2
_MACON4                                              (abs)         00EA3
_MACPut                                              text114       0548C
_MACPutArray                                         text113       050EC
_MACPutHeader                                        text112       04782
_MACPutHeader$10599                                  cstackCOMRAM  00025
_MACSetReadPtr                                       text82        05310
_MACSetReadPtrInRx                                   text99        04E22
_MACSetWritePtr                                      text111       054AC
_MAIPGH                                              (abs)         00EA7
_MAIPGL                                              (abs)         00EA6
_MAMXFLH                                             (abs)         00EAB
_MAMXFLL                                             (abs)         00EAA
_MICMD                                               (abs)         00EB2
_MIRDH                                               (abs)         00EB9
_MIRDL                                               (abs)         00EB8
_MIREGADR                                            (abs)         00EB4
_MISTATbits                                          (abs)         00E8A
_MiscHexStringToByte                                 text128       04982
_NDCFSM                                              text35        036A6
_NDCGetRelayActiveTime                               text21        05498
_NDCInitData                                         text34        05248
_NDCResetState                                       text33        051A8
_NDCTick                                             text137       05390
_NextPacketLocation                                  bssBANK1      00168
_OSCTUNE                                             (abs)         00F9B
_OpenUDPsocket                                       text41        03C1A
_PIE1bits                                            (abs)         00F9D
_PIR1bits                                            (abs)         00F9E
_PORTHbits                                           (abs)         00F87
_PR2                                                 (abs)         00FCB
_PRODH                                               (abs)         00FF4
_PRODL                                               (abs)         00FF3
_ProcessDoorIndicator                                text23        052F6
_ProcessDoorIndicatorIsClosed                        text32        054D4
_ProcessDoorIndicatorIsOpen                          text30        051EA
_ProcessDoorSwitch                                   text11        052C0
_ProcessDoorSwitchIsPressed                          text17        04CBC
_ProcessDoorSwitchIsReleased                         text16        054CC
_ProcessStateDoorIndicatorClosed                     text28        0547C
_ProcessStateDoorIndicatorOpen                       text25        04F74
_ProcessStateDoorIndicatorOpenTooLong                text24        0522A
_ProcessStateDoorSwitchIdle                          text15        0546C
_ProcessStateDoorSwitchPressed                       text13        0509E
_ProcessStateDoorSwitchPressedTooLong                text12        052DC
_RCONbits                                            (abs)         00FD0
_RTC                                                 text136       052A2
_ReadPHYReg                                          text101       04F46
_SSP1BUF                                             (abs)         00FC9
_SSP1CON1                                            (abs)         00FC6
_SSP1CON1bits                                        (abs)         00FC6
_SSP1STATbits                                        (abs)         00FC7
_SendConnectionRequest                               text40        038D0
_SendDeviceReadySignal                               text39        04888
_SendDoorClosedEvent                                 text27        04612
_SendDoorOpenEvent                                   text31        0466E
_SendDoorOpenTooLongEvent                            text26        045B6
_SendDoorStatus                                      text47        03F6C
_SendDoorSwitchPressedEvent                          text20        04440
_SendDoorSwitchPressedTooLongEvent                   text14        0455A
_SendDoorTimerExpiredEvent                           text46        044FC
_SendFirstConnectionMadeEvent                        text37        0449E
_SendGetConfigData                                   text55        048DC
_SendHeartBeat                                       text36        03AD2
_SendUDPMessage                                      text62        046CA
_SendVersionString                                   text45        035E8
_SocketWithRxData                                    dataCOMRAM    00043
_StackInit                                           text3         049D2
_StackInit$12046                                     cstackBANK0   0008A
_StackTask                                           text63        02282
_SwapARPPacket                                       text109       041D2
_SwapIPHeader                                        text84        04068
_T0CON                                               (abs)         00FD5
_T1CON                                               (abs)         00FCD
_T2CON                                               (abs)         00FCA
_TMR0H                                               (abs)         00FD7
_TMR0L                                               (abs)         00FD6
_TMR1H                                               (abs)         00FCF
_TMR1L                                               (abs)         00FCE
_TMR2                                                (abs)         00FCC
_TRISA                                               (abs)         00F92
_TRISBbits                                           (abs)         00F93
_TRISCbits                                           (abs)         00F94
_TRISD                                               (abs)         00F95
_TRISDbits                                           (abs)         00F95
_TRISF                                               (abs)         00F97
_TRISG                                               (abs)         00F98
_TRISH                                               (abs)         00F99
_TRISHbits                                           (abs)         00F99
_TickGet                                             text125       05138
_TickGetDiv256                                       text65        050C6
_TickInit                                            text2         0545C
_TickUpdate                                          text135       05412
_UDPClose                                            text120       04B56
_UDPDiscard                                          text91        05438
_UDPFlush                                            text81        02596
_UDPGet                                              text89        04FF6
_UDPGetArray                                         text88        0431A
_UDPInit                                             text4         053D6
_UDPIsGetReady                                       text96        04F18
_UDPIsPutReady                                       text94        04C7A
_UDPOpenEx                                           text92        02710
_UDPProcess                                          text68        02AA2
_UDPPut                                              text80        04E8C
_UDPPutArray                                         text79        04726
_UDPRxCount                                          bssCOMRAM     00033
_UDPSetRxBuffer                                      text97        05344
_UDPSetTxBuffer                                      text95        0532A
_UDPSocketInfo                                       bssBANK2      00200
_UDPTask                                             text64        02414
_UDPTxCount                                          bssBANK0      000C7
_WasDiscarded                                        bssCOMRAM     0003C
_WritePHYReg                                         text6         04EBC
_XEEInit                                             text1         053C0
__CFG_BW$16                                          (abs)         00000
__CFG_CCP2MX$ON                                      (abs)         00000
__CFG_CP0$OFF                                        (abs)         00000
__CFG_EASHFT$ON                                      (abs)         00000
__CFG_ECCPMX$ON                                      (abs)         00000
__CFG_ETHLED$ON                                      (abs)         00000
__CFG_FCMEN$ON                                       (abs)         00000
__CFG_FOSC$HSPLL                                     (abs)         00000
__CFG_FOSC2$ON                                       (abs)         00000
__CFG_IESO$ON                                        (abs)         00000
__CFG_MODE$MM                                        (abs)         00000
__CFG_STVR$ON                                        (abs)         00000
__CFG_WAIT$OFF                                       (abs)         00000
__CFG_WDT$OFF                                        (abs)         00000
__CFG_WDTPS$2048                                     (abs)         00000
__CFG_XINST$OFF                                      (abs)         00000
__DHCPReceive                                        text87        01C5A
__DHCPReceive@i                                      cstackBANK0   0006B
__DHCPReceive@j                                      cstackBANK0   00066
__DHCPReceive@lbDone                                 cstackBANK0   00064
__DHCPReceive@tempServerID                           cstackBANK0   00067
__DHCPReceive@type                                   cstackBANK0   00065
__DHCPReceive@v                                      cstackBANK0   0006C
__DHCPSend                                           text78        01ED0
__DHCPSend$6883                                      cstackBANK0   0009E
__DHCPSend@MyIP                                      cstackBANK0   0009A
__DHCPSend@bRenewing                                 cstackBANK0   00099
__DHCPSend@i                                         cstackBANK0   000A0
__DHCPSend@messageType                               cstackBANK0   000A1
__HRAM                                               (abs)         00000
__Habs1                                              abs1          00000
__Hbank0                                             bank0         00000
__Hbank1                                             bank1         00000
__Hbank10                                            bank10        00000
__Hbank11                                            bank11        00000
__Hbank12                                            bank12        00000
__Hbank13                                            bank13        00000
__Hbank14                                            bank14        00000
__Hbank15                                            bank15        00000
__Hbank2                                             bank2         00000
__Hbank3                                             bank3         00000
__Hbank4                                             bank4         00000
__Hbank5                                             bank5         00000
__Hbank6                                             bank6         00000
__Hbank7                                             bank7         00000
__Hbank8                                             bank8         00000
__Hbank9                                             bank9         00000
__Hbigbss                                            bigbss        00000
__Hbigdata                                           bigdata       00000
__Hbigram                                            bigram        00000
__Hbss                                               bss           00000
__HbssBANK0                                          bssBANK0      00000
__HbssBANK1                                          bssBANK1      00000
__HbssBANK2                                          bssBANK2      00000
__HbssBANK3                                          bssBANK3      00000
__HbssBIGRAM                                         bssBIGRAM     00000
__HbssCOMRAM                                         bssCOMRAM     00000
__Hcinit                                             cinit         00000
__Hclrtext                                           clrtext       00000
__Hcomram                                            comram        00000
__Hconfig                                            config        1FFFE
__Hconst                                             const         00000
__HcstackBANK0                                       cstackBANK0   00000
__HcstackBANK1                                       cstackBANK1   00000
__HcstackBANK2                                       cstackBANK2   00000
__HcstackCOMRAM                                      cstackCOMRAM  00000
__Hdata                                              data          00000
__HdataBANK1                                         dataBANK1     00000
__HdataCOMRAM                                        dataCOMRAM    00000
__Hend_init                                          end_init      00062
__Hfarbss                                            farbss        00000
__Hfardata                                           fardata       00000
__Hibigdata                                          ibigdata      00000
__Hidata                                             idata         00000
__HidataBANK1                                        idataBANK1    00000
__HidataCOMRAM                                       idataCOMRAM   00000
__Hidloc                                             idloc         00000
__Hifardata                                          ifardata      00000
__Hinit                                              init          0005E
__Hintcode                                           intcode       0000E
__Hintcode_body                                      intcode_body  00000
__Hintcodelo                                         intcodelo     0005E
__Hintentry                                          intentry      00000
__Hintret                                            intret        00000
__Hintsave_regs                                      intsave_regs  00000
__Hirdata                                            irdata        00000
__Hjflash_buffer                                     jflash_buffer 1F800
__Hmediumconst                                       mediumconst   00000
__HnvFARRAM                                          nvFARRAM      00000
__Hnvbit                                             nvbit         00000
__Hnvrram                                            nvrram        00000
__Hparam                                             rparam        00000
__Hpowerup                                           powerup       0005E
__Hram                                               ram           00000
__Hramtop                                            ramtop        01000
__Hrbit                                              rbit          00000
__Hrbss                                              rbss          00000
__Hrdata                                             rdata         00000
__Hreset_vec                                         reset_vec     00004
__Hrparam                                            rparam        00000
__Hsfr                                               sfr           00000
__Hsmallconst                                        smallconst    0100C
__Hspace_0                                           (abs)         1FFFE
__Hspace_1                                           (abs)         00535
__Hspace_2                                           (abs)         00000
__Hstack                                             stack         00000
__Hstruct                                            struct        00000
__Htemp                                              temp          00045
__Htext                                              text          00000
__Htext0                                             text0         00000
__Htext1                                             text1         00000
__Htext10                                            text10        00000
__Htext100                                           text100       00000
__Htext101                                           text101       00000
__Htext102                                           text102       00000
__Htext103                                           text103       00000
__Htext104                                           text104       00000
__Htext105                                           text105       00000
__Htext106                                           text106       00000
__Htext107                                           text107       00000
__Htext108                                           text108       00000
__Htext109                                           text109       00000
__Htext11                                            text11        00000
__Htext110                                           text110       00000
__Htext111                                           text111       00000
__Htext112                                           text112       00000
__Htext113                                           text113       00000
__Htext114                                           text114       00000
__Htext115                                           text115       00000
__Htext116                                           text116       00000
__Htext117                                           text117       00000
__Htext118                                           text118       00000
__Htext119                                           text119       00000
__Htext12                                            text12        00000
__Htext120                                           text120       00000
__Htext121                                           text121       00000
__Htext122                                           text122       00000
__Htext123                                           text123       00000
__Htext124                                           text124       00000
__Htext125                                           text125       00000
__Htext126                                           text126       00000
__Htext127                                           text127       00000
__Htext128                                           text128       00000
__Htext129                                           text129       00000
__Htext13                                            text13        00000
__Htext130                                           text130       00000
__Htext131                                           text131       00000
__Htext132                                           text132       00000
__Htext133                                           text133       00000
__Htext135                                           text135       00000
__Htext136                                           text136       00000
__Htext137                                           text137       00000
__Htext138                                           text138       00000
__Htext139                                           text139       00000
__Htext14                                            text14        00000
__Htext140                                           text140       00000
__Htext141                                           text141       00000
__Htext142                                           text142       00000
__Htext15                                            text15        00000
__Htext16                                            text16        00000
__Htext17                                            text17        00000
__Htext18                                            text18        00000
__Htext19                                            text19        00000
__Htext2                                             text2         00000
__Htext20                                            text20        00000
__Htext21                                            text21        00000
__Htext22                                            text22        00000
__Htext23                                            text23        00000
__Htext24                                            text24        00000
__Htext25                                            text25        00000
__Htext26                                            text26        00000
__Htext27                                            text27        00000
__Htext28                                            text28        00000
__Htext29                                            text29        00000
__Htext3                                             text3         00000
__Htext30                                            text30        00000
__Htext31                                            text31        00000
__Htext32                                            text32        00000
__Htext33                                            text33        00000
__Htext34                                            text34        00000
__Htext35                                            text35        00000
__Htext36                                            text36        00000
__Htext37                                            text37        00000
__Htext38                                            text38        00000
__Htext39                                            text39        00000
__Htext4                                             text4         00000
__Htext40                                            text40        00000
__Htext41                                            text41        00000
__Htext42                                            text42        00000
__Htext43                                            text43        00000
__Htext44                                            text44        00000
__Htext45                                            text45        00000
__Htext46                                            text46        00000
__Htext47                                            text47        00000
__Htext48                                            text48        00000
__Htext49                                            text49        00000
__Htext5                                             text5         00000
__Htext50                                            text50        00000
__Htext51                                            text51        00000
__Htext52                                            text52        00000
__Htext53                                            text53        00000
__Htext54                                            text54        00000
__Htext55                                            text55        00000
__Htext56                                            text56        00000
__Htext57                                            text57        00000
__Htext58                                            text58        00000
__Htext59                                            text59        00000
__Htext6                                             text6         00000
__Htext60                                            text60        00000
__Htext61                                            text61        00000
__Htext62                                            text62        00000
__Htext63                                            text63        00000
__Htext64                                            text64        00000
__Htext65                                            text65        00000
__Htext66                                            text66        00000
__Htext67                                            text67        00000
__Htext68                                            text68        00000
__Htext69                                            text69        00000
__Htext7                                             text7         00000
__Htext70                                            text70        00000
__Htext71                                            text71        00000
__Htext72                                            text72        00000
__Htext73                                            text73        00000
__Htext74                                            text74        00000
__Htext75                                            text75        00000
__Htext76                                            text76        00000
__Htext77                                            text77        00000
__Htext78                                            text78        00000
__Htext79                                            text79        00000
__Htext8                                             text8         00000
__Htext80                                            text80        00000
__Htext81                                            text81        00000
__Htext82                                            text82        00000
__Htext83                                            text83        00000
__Htext84                                            text84        00000
__Htext85                                            text85        00000
__Htext86                                            text86        00000
__Htext87                                            text87        00000
__Htext88                                            text88        00000
__Htext89                                            text89        00000
__Htext9                                             text9         00000
__Htext90                                            text90        00000
__Htext91                                            text91        00000
__Htext92                                            text92        00000
__Htext93                                            text93        00000
__Htext94                                            text94        00000
__Htext95                                            text95        00000
__Htext96                                            text96        00000
__Htext97                                            text97        00000
__Htext98                                            text98        00000
__Htext99                                            text99        00000
__Identifier                                         bssBANK1      0016A
__LRAM                                               (abs)         00001
__Labs1                                              abs1          00000
__Lbank0                                             bank0         00000
__Lbank1                                             bank1         00000
__Lbank10                                            bank10        00000
__Lbank11                                            bank11        00000
__Lbank12                                            bank12        00000
__Lbank13                                            bank13        00000
__Lbank14                                            bank14        00000
__Lbank15                                            bank15        00000
__Lbank2                                             bank2         00000
__Lbank3                                             bank3         00000
__Lbank4                                             bank4         00000
__Lbank5                                             bank5         00000
__Lbank6                                             bank6         00000
__Lbank7                                             bank7         00000
__Lbank8                                             bank8         00000
__Lbank9                                             bank9         00000
__Lbigbss                                            bigbss        00000
__Lbigdata                                           bigdata       00000
__Lbigram                                            bigram        00000
__Lbss                                               bss           00000
__LbssBANK0                                          bssBANK0      00000
__LbssBANK1                                          bssBANK1      00000
__LbssBANK2                                          bssBANK2      00000
__LbssBANK3                                          bssBANK3      00000
__LbssBIGRAM                                         bssBIGRAM     00000
__LbssCOMRAM                                         bssCOMRAM     00000
__Lcinit                                             cinit         00000
__Lclrtext                                           clrtext       00000
__Lcomram                                            comram        00000
__Lconfig                                            config        1FFF8
__Lconst                                             const         00000
__LcstackBANK0                                       cstackBANK0   00000
__LcstackBANK1                                       cstackBANK1   00000
__LcstackBANK2                                       cstackBANK2   00000
__LcstackCOMRAM                                      cstackCOMRAM  00000
__Ldata                                              data          00000
__LdataBANK1                                         dataBANK1     00000
__LdataCOMRAM                                        dataCOMRAM    00000
__Lend_init                                          end_init      0005E
__Lfarbss                                            farbss        00000
__Lfardata                                           fardata       00000
__Libigdata                                          ibigdata      00000
__Lidata                                             idata         00000
__LidataBANK1                                        idataBANK1    00000
__LidataCOMRAM                                       idataCOMRAM   00000
__Lidloc                                             idloc         00000
__Lifardata                                          ifardata      00000
__Linit                                              init          0005E
__Lintcode                                           intcode       00008
__Lintcode_body                                      intcode_body  00000
__Lintcodelo                                         intcodelo     00018
__Lintentry                                          intentry      00000
__Lintret                                            intret        00000
__Lintsave_regs                                      intsave_regs  00000
__Lirdata                                            irdata        00000
__Ljflash_buffer                                     jflash_buffer 1F800
__Lmediumconst                                       mediumconst   00000
__LnvFARRAM                                          nvFARRAM      00000
__Lnvbit                                             nvbit         00000
__Lnvrram                                            nvrram        00000
__Lparam                                             rparam        00000
__Lpowerup                                           powerup       0005E
__Lram                                               ram           00000
__Lramtop                                            ramtop        01000
__Lrbit                                              rbit          00000
__Lrbss                                              rbss          00000
__Lrdata                                             rdata         00000
__Lreset_vec                                         reset_vec     00000
__Lrparam                                            rparam        00000
__Lsfr                                               sfr           00000
__Lsmallconst                                        smallconst    01000
__Lspace_0                                           (abs)         00000
__Lspace_1                                           (abs)         00000
__Lspace_2                                           (abs)         00000
__Lstack                                             stack         00000
__Lstruct                                            struct        00000
__Ltemp                                              temp          00044
__Ltext                                              text          00000
__Ltext0                                             text0         00000
__Ltext1                                             text1         00000
__Ltext10                                            text10        00000
__Ltext100                                           text100       00000
__Ltext101                                           text101       00000
__Ltext102                                           text102       00000
__Ltext103                                           text103       00000
__Ltext104                                           text104       00000
__Ltext105                                           text105       00000
__Ltext106                                           text106       00000
__Ltext107                                           text107       00000
__Ltext108                                           text108       00000
__Ltext109                                           text109       00000
__Ltext11                                            text11        00000
__Ltext110                                           text110       00000
__Ltext111                                           text111       00000
__Ltext112                                           text112       00000
__Ltext113                                           text113       00000
__Ltext114                                           text114       00000
__Ltext115                                           text115       00000
__Ltext116                                           text116       00000
__Ltext117                                           text117       00000
__Ltext118                                           text118       00000
__Ltext119                                           text119       00000
__Ltext12                                            text12        00000
__Ltext120                                           text120       00000
__Ltext121                                           text121       00000
__Ltext122                                           text122       00000
__Ltext123                                           text123       00000
__Ltext124                                           text124       00000
__Ltext125                                           text125       00000
__Ltext126                                           text126       00000
__Ltext127                                           text127       00000
__Ltext128                                           text128       00000
__Ltext129                                           text129       00000
__Ltext13                                            text13        00000
__Ltext130                                           text130       00000
__Ltext131                                           text131       00000
__Ltext132                                           text132       00000
__Ltext133                                           text133       00000
__Ltext135                                           text135       00000
__Ltext136                                           text136       00000
__Ltext137                                           text137       00000
__Ltext138                                           text138       00000
__Ltext139                                           text139       00000
__Ltext14                                            text14        00000
__Ltext140                                           text140       00000
__Ltext141                                           text141       00000
__Ltext142                                           text142       00000
__Ltext15                                            text15        00000
__Ltext16                                            text16        00000
__Ltext17                                            text17        00000
__Ltext18                                            text18        00000
__Ltext19                                            text19        00000
__Ltext2                                             text2         00000
__Ltext20                                            text20        00000
__Ltext21                                            text21        00000
__Ltext22                                            text22        00000
__Ltext23                                            text23        00000
__Ltext24                                            text24        00000
__Ltext25                                            text25        00000
__Ltext26                                            text26        00000
__Ltext27                                            text27        00000
__Ltext28                                            text28        00000
__Ltext29                                            text29        00000
__Ltext3                                             text3         00000
__Ltext30                                            text30        00000
__Ltext31                                            text31        00000
__Ltext32                                            text32        00000
__Ltext33                                            text33        00000
__Ltext34                                            text34        00000
__Ltext35                                            text35        00000
__Ltext36                                            text36        00000
__Ltext37                                            text37        00000
__Ltext38                                            text38        00000
__Ltext39                                            text39        00000
__Ltext4                                             text4         00000
__Ltext40                                            text40        00000
__Ltext41                                            text41        00000
__Ltext42                                            text42        00000
__Ltext43                                            text43        00000
__Ltext44                                            text44        00000
__Ltext45                                            text45        00000
__Ltext46                                            text46        00000
__Ltext47                                            text47        00000
__Ltext48                                            text48        00000
__Ltext49                                            text49        00000
__Ltext5                                             text5         00000
__Ltext50                                            text50        00000
__Ltext51                                            text51        00000
__Ltext52                                            text52        00000
__Ltext53                                            text53        00000
__Ltext54                                            text54        00000
__Ltext55                                            text55        00000
__Ltext56                                            text56        00000
__Ltext57                                            text57        00000
__Ltext58                                            text58        00000
__Ltext59                                            text59        00000
__Ltext6                                             text6         00000
__Ltext60                                            text60        00000
__Ltext61                                            text61        00000
__Ltext62                                            text62        00000
__Ltext63                                            text63        00000
__Ltext64                                            text64        00000
__Ltext65                                            text65        00000
__Ltext66                                            text66        00000
__Ltext67                                            text67        00000
__Ltext68                                            text68        00000
__Ltext69                                            text69        00000
__Ltext7                                             text7         00000
__Ltext70                                            text70        00000
__Ltext71                                            text71        00000
__Ltext72                                            text72        00000
__Ltext73                                            text73        00000
__Ltext74                                            text74        00000
__Ltext75                                            text75        00000
__Ltext76                                            text76        00000
__Ltext77                                            text77        00000
__Ltext78                                            text78        00000
__Ltext79                                            text79        00000
__Ltext8                                             text8         00000
__Ltext80                                            text80        00000
__Ltext81                                            text81        00000
__Ltext82                                            text82        00000
__Ltext83                                            text83        00000
__Ltext84                                            text84        00000
__Ltext85                                            text85        00000
__Ltext86                                            text86        00000
__Ltext87                                            text87        00000
__Ltext88                                            text88        00000
__Ltext89                                            text89        00000
__Ltext9                                             text9         00000
__Ltext90                                            text90        00000
__Ltext91                                            text91        00000
__Ltext92                                            text92        00000
__Ltext93                                            text93        00000
__Ltext94                                            text94        00000
__Ltext95                                            text95        00000
__Ltext96                                            text96        00000
__Ltext97                                            text97        00000
__Ltext98                                            text98        00000
__Ltext99                                            text99        00000
__S0                                                 (abs)         1FFFE
__S1                                                 (abs)         00535
__S2                                                 (abs)         00000
___awdiv                                             text52        040E4
___awdiv@counter                                     cstackCOMRAM  00020
___awdiv@dividend                                    cstackCOMRAM  0001C
___awdiv@divisor                                     cstackCOMRAM  0001E
___awdiv@quotient                                    cstackCOMRAM  00022
___awdiv@sign                                        cstackCOMRAM  00021
___extmem_base                                       (abs)         20000
___inthi_sp                                          stack         00000
___intlo_sp                                          stack         00000
___lldiv                                             text61        0415C
___lldiv@counter                                     cstackCOMRAM  00028
___lldiv@dividend                                    cstackCOMRAM  0001C
___lldiv@divisor                                     cstackCOMRAM  00020
___lldiv@quotient                                    cstackCOMRAM  00024
___llmod                                             text60        0437E
___llmod@counter                                     cstackCOMRAM  00024
___llmod@dividend                                    cstackCOMRAM  0001C
___llmod@divisor                                     cstackCOMRAM  00020
___lwmod                                             text77        04CFC
___lwmod@counter                                     cstackCOMRAM  00023
___lwmod@dividend                                    cstackCOMRAM  0001F
___lwmod@divisor                                     cstackCOMRAM  00021
___param_bank                                        (abs)         00010
___rparam_used                                       (abs)         00001
___sp                                                stack         00000
__accesstop                                          (abs)         00060
__activetblptr                                       (abs)         00003
__end_of_ARPInit                                     text10        05390
__end_of_ARPIsResolved                               text67        033AA
__end_of_ARPProcess                                  text105       02CC4
__end_of_ARPPut                                      text108       0346A
__end_of_ARPResolve                                  text66        032E6
__end_of_Beep                                        text53        04F18
__end_of_BeepTimerUpdate                             text140       0352A
__end_of_CalcIPBufferChecksum                        text86        03222
__end_of_CalcIPChecksum                              text85        03E58
__end_of_CheckConfigDataWaitTimer                    text124       04BEE
__end_of_CheckConnectionResponseWaitTimer            text123       04B0A
__end_of_CheckDoorTimer                              text122       05138
__end_of_CheckFlashingLEDTimer                       text121       042B2
__end_of_CheckHeartBeatTimer                         text119       04982
__end_of_CheckIfFirstTimeConnection                  text38        054AC
__end_of_CheckKeypad                                 text57        01984
__end_of_CheckWaitForCodeTimer                       text56        02F9A
__end_of_DHCPDisable                                 text9         053FE
__end_of_DHCPEnable                                  text133       05378
__end_of_DHCPInit                                    text104       04D76
__end_of_DHCPIsBound                                 text103       054C6
__end_of_DHCPTask                                    text76        01670
__end_of_DelayMs                                     text117       04C7A
__end_of_DoorIndicatorGetStatus                      text48        054BE
__end_of_DoorIndicatorTimerUpdate                    text139       04FCC
__end_of_DoorIndicatorUpdateConfig                   text51        03DCC
__end_of_DoorSwitchTimerUpdate                       text138       053C0
__end_of_DoorSwitchUpdateConfig                      text50        03F6C
__end_of_FindMatchingSocket                          text69        02DC6
__end_of_FormatNetBIOSName                           text131       04888
__end_of_GenerateRandomDWORD                         text7         02AA2
__end_of_GetTickCopy                                 text126       05074
__end_of_GetWiegandCode                              text118       04ABC
__end_of_HandleConfigData                            text49        02282
__end_of_HandleConnectionResponse                    text54        04440
__end_of_HandleReceivedBytes                         text44        01C5A
__end_of_HighISR                                     intcode_body  04068
__end_of_ICMPProcess                                 text72        03A2A
__end_of_IPGetHeader                                 text71        0307E
__end_of_IPPutHeader                                 text83        03AD2
__end_of_IPSetRxBuffer                               text98        0545C
__end_of_InitAppConfig                               text129       03C1A
__end_of_InitStartState                              text43        05284
__end_of_InitializeBoard                             text127       0381E
__end_of_IsDoorSwitchPressed                         text22        05438
__end_of_KeyPressedResetIdleTimer                    text42        04A6E
__end_of_LFSRRand                                    text102       03EE4
__end_of_LFSRSeedRand                                text8         04E8C
__end_of_LowISR                                      intcodelo     0005E
__end_of_MACCalcRxChecksum                           text75        0431A
__end_of_MACDiscardRx                                text107       04DEA
__end_of_MACFlush                                    text116       0522A
__end_of_MACGet                                      text90        054DA
__end_of_MACGetArray                                 text106       04B56
__end_of_MACGetHeader                                text70        038D0
__end_of_MACInit                                     text5         035E8
__end_of_MACIsLinked                                 text100       05412
__end_of_MACIsMemCopyDone                            text74        054CC
__end_of_MACIsTxReady                                text115       051A8
__end_of_MACMemCopyAsync                             text73        02984
__end_of_MACPut                                      text114       05498
__end_of_MACPutArray                                 text113       05112
__end_of_MACPutHeader                                text112       047DC
__end_of_MACSetReadPtr                               text82        0532A
__end_of_MACSetReadPtrInRx                           text99        04E58
__end_of_MACSetWritePtr                              text111       054B6
__end_of_MiscHexStringToByte                         text128       049D2
__end_of_NDCFSM                                      text35        03762
__end_of_NDCGetRelayActiveTime                       text21        054A2
__end_of_NDCInitData                                 text34        05266
__end_of_NDCResetState                               text33        051CA
__end_of_NDCTick                                     text137       053A8
__end_of_OpenUDPsocket                               text41        03CB4
__end_of_ProcessDoorIndicator                        text23        05310
__end_of_ProcessDoorIndicatorIsClosed                text32        054D8
__end_of_ProcessDoorIndicatorIsOpen                  text30        0520A
__end_of_ProcessDoorSwitch                           text11        052DC
__end_of_ProcessDoorSwitchIsPressed                  text17        04CFC
__end_of_ProcessDoorSwitchIsReleased                 text16        054D0
__end_of_ProcessStateDoorIndicatorClosed             text28        0548C
__end_of_ProcessStateDoorIndicatorOpen               text25        04FA0
__end_of_ProcessStateDoorIndicatorOpenTooLong        text24        05248
__end_of_ProcessStateDoorSwitchIdle                  text15        0547C
__end_of_ProcessStateDoorSwitchPressed               text13        050C6
__end_of_ProcessStateDoorSwitchPressedTooLong        text12        052F6
__end_of_RTC                                         text136       052C0
__end_of_ReadPHYReg                                  text101       04F74
__end_of_SendConnectionRequest                       text40        0397E
__end_of_SendDeviceReadySignal                       text39        048DC
__end_of_SendDoorClosedEvent                         text27        0466E
__end_of_SendDoorOpenEvent                           text31        046CA
__end_of_SendDoorOpenTooLongEvent                    text26        04612
__end_of_SendDoorStatus                              text47        03FEA
__end_of_SendDoorSwitchPressedEvent                  text20        0449E
__end_of_SendDoorSwitchPressedTooLongEvent           text14        045B6
__end_of_SendDoorTimerExpiredEvent                   text46        0455A
__end_of_SendFirstConnectionMadeEvent                text37        044FC
__end_of_SendGetConfigData                           text55        04930
__end_of_SendHeartBeat                               text36        03B78
__end_of_SendUDPMessage                              text62        04726
__end_of_SendVersionString                           text45        036A6
__end_of_StackInit                                   text3         04A20
__end_of_StackTask                                   text63        02414
__end_of_SwapARPPacket                               text109       04246
__end_of_SwapIPHeader                                text84        040E4
__end_of_TickGet                                     text125       0515E
__end_of_TickGetDiv256                               text65        050EC
__end_of_TickInit                                    text2         0546C
__end_of_TickUpdate                                  text135       05426
__end_of_UDPClose                                    text120       04BA2
__end_of_UDPDiscard                                  text91        0544A
__end_of_UDPFlush                                    text81        02710
__end_of_UDPGet                                      text89        05020
__end_of_UDPGetArray                                 text88        0437E
__end_of_UDPInit                                     text4         053EA
__end_of_UDPIsGetReady                               text96        04F46
__end_of_UDPIsPutReady                               text94        04CBC
__end_of_UDPOpenEx                                   text92        02854
__end_of_UDPProcess                                  text68        02BBE
__end_of_UDPPut                                      text80        04EBC
__end_of_UDPPutArray                                 text79        04782
__end_of_UDPSetRxBuffer                              text97        0535E
__end_of_UDPSetTxBuffer                              text95        05344
__end_of_UDPTask                                     text64        02596
__end_of_WritePHYReg                                 text6         04EEA
__end_of_XEEInit                                     text1         053D6
__end_of__DHCPReceive                                text87        01ED0
__end_of__DHCPSend                                   text78        020AE
__end_of___awdiv                                     text52        0415C
__end_of___lldiv                                     text61        041D2
__end_of___llmod                                     text60        043E0
__end_of___lwmod                                     text77        04D3A
__end_of__initialization                             cinit         03D36
__end_of_isDoorIndicatorOpen                         text29        04DB0
__end_of_isOpenDoorFlag                              text19        054D4
__end_of_ltoa                                        text58        04C36
__end_of_main                                        text0         03152
__end_of_memcpy                                      text130       04832
__end_of_memset                                      text93        0504A
__end_of_setDoorOpen                                 text18        04FF6
__end_of_strupr                                      text132       04E22
__end_of_swaps                                       text110       052A2
__end_of_ultoa                                       text59        02EB6
__end_ofi1_GetTickCopy                               text142       0509E
__end_ofi1_TickGet                                   text141       05184
__initialization                                     cinit         03CB4
__mediumconst                                        mediumconst   00000
__pbssBANK0                                          bssBANK0      000C7
__pbssBANK1                                          bssBANK1      00100
__pbssBANK2                                          bssBANK2      00200
__pbssBANK3                                          bssBANK3      00300
__pbssBIGRAM                                         bssBIGRAM     00341
__pbssCOMRAM                                         bssCOMRAM     00029
__pcinit                                             cinit         03CB4
__pcstackBANK0                                       cstackBANK0   00060
__pcstackBANK1                                       cstackBANK1   001E8
__pcstackBANK2                                       cstackBANK2   002E6
__pcstackCOMRAM                                      cstackCOMRAM  00001
__pdataBANK1                                         dataBANK1     001C8
__pdataCOMRAM                                        dataCOMRAM    00043
__pidataBANK1                                        idataBANK1    051CA
__pidataCOMRAM                                       idataCOMRAM   054DA
__pintcode                                           intcode       00008
__pintcode_body                                      intcode_body  03FEA
__pintcodelo                                         intcodelo     00018
__psmallconst                                        smallconst    01000
__ptext0                                             text0         0307E
__ptext1                                             text1         053C0
__ptext10                                            text10        05378
__ptext100                                           text100       053FE
__ptext101                                           text101       04F46
__ptext102                                           text102       03E58
__ptext103                                           text103       054BE
__ptext104                                           text104       04D3A
__ptext105                                           text105       02BBE
__ptext106                                           text106       04B0A
__ptext107                                           text107       04DB0
__ptext108                                           text108       033AA
__ptext109                                           text109       041D2
__ptext11                                            text11        052C0
__ptext110                                           text110       05284
__ptext111                                           text111       054AC
__ptext112                                           text112       04782
__ptext113                                           text113       050EC
__ptext114                                           text114       0548C
__ptext115                                           text115       05184
__ptext116                                           text116       0520A
__ptext117                                           text117       04C36
__ptext118                                           text118       04A6E
__ptext119                                           text119       04930
__ptext12                                            text12        052DC
__ptext120                                           text120       04B56
__ptext121                                           text121       04246
__ptext122                                           text122       05112
__ptext123                                           text123       04ABC
__ptext124                                           text124       04BA2
__ptext125                                           text125       05138
__ptext126                                           text126       0504A
__ptext127                                           text127       03762
__ptext128                                           text128       04982
__ptext129                                           text129       03B78
__ptext13                                            text13        0509E
__ptext130                                           text130       047DC
__ptext131                                           text131       04832
__ptext132                                           text132       04DEA
__ptext133                                           text133       0535E
__ptext135                                           text135       05412
__ptext136                                           text136       052A2
__ptext137                                           text137       05390
__ptext138                                           text138       053A8
__ptext139                                           text139       04FA0
__ptext14                                            text14        0455A
__ptext140                                           text140       0346A
__ptext141                                           text141       0515E
__ptext142                                           text142       05074
__ptext15                                            text15        0546C
__ptext16                                            text16        054CC
__ptext17                                            text17        04CBC
__ptext18                                            text18        04FCC
__ptext19                                            text19        054D0
__ptext2                                             text2         0545C
__ptext20                                            text20        04440
__ptext21                                            text21        05498
__ptext22                                            text22        05426
__ptext23                                            text23        052F6
__ptext24                                            text24        0522A
__ptext25                                            text25        04F74
__ptext26                                            text26        045B6
__ptext27                                            text27        04612
__ptext28                                            text28        0547C
__ptext29                                            text29        04D76
__ptext3                                             text3         049D2
__ptext30                                            text30        051EA
__ptext31                                            text31        0466E
__ptext32                                            text32        054D4
__ptext33                                            text33        051A8
__ptext34                                            text34        05248
__ptext35                                            text35        036A6
__ptext36                                            text36        03AD2
__ptext37                                            text37        0449E
__ptext38                                            text38        054A2
__ptext39                                            text39        04888
__ptext4                                             text4         053D6
__ptext40                                            text40        038D0
__ptext41                                            text41        03C1A
__ptext42                                            text42        04A20
__ptext43                                            text43        05266
__ptext44                                            text44        01984
__ptext45                                            text45        035E8
__ptext46                                            text46        044FC
__ptext47                                            text47        03F6C
__ptext48                                            text48        054B6
__ptext49                                            text49        020AE
__ptext5                                             text5         0352A
__ptext50                                            text50        03EE4
__ptext51                                            text51        03D40
__ptext52                                            text52        040E4
__ptext53                                            text53        04EEA
__ptext54                                            text54        043E0
__ptext55                                            text55        048DC
__ptext56                                            text56        02EB6
__ptext57                                            text57        01670
__ptext58                                            text58        04BEE
__ptext59                                            text59        02DC6
__ptext6                                             text6         04EBC
__ptext60                                            text60        0437E
__ptext61                                            text61        0415C
__ptext62                                            text62        046CA
__ptext63                                            text63        02282
__ptext64                                            text64        02414
__ptext65                                            text65        050C6
__ptext66                                            text66        03222
__ptext67                                            text67        032E6
__ptext68                                            text68        02AA2
__ptext69                                            text69        02CC4
__ptext7                                             text7         02984
__ptext70                                            text70        0381E
__ptext71                                            text71        02F9A
__ptext72                                            text72        0397E
__ptext73                                            text73        02854
__ptext74                                            text74        054C6
__ptext75                                            text75        042B2
__ptext76                                            text76        0100C
__ptext77                                            text77        04CFC
__ptext78                                            text78        01ED0
__ptext79                                            text79        04726
__ptext8                                             text8         04E58
__ptext80                                            text80        04E8C
__ptext81                                            text81        02596
__ptext82                                            text82        05310
__ptext83                                            text83        03A2A
__ptext84                                            text84        04068
__ptext85                                            text85        03DCC
__ptext86                                            text86        03152
__ptext87                                            text87        01C5A
__ptext88                                            text88        0431A
__ptext89                                            text89        04FF6
__ptext9                                             text9         053EA
__ptext90                                            text90        054D8
__ptext91                                            text91        05438
__ptext92                                            text92        02710
__ptext93                                            text93        05020
__ptext94                                            text94        04C7A
__ptext95                                            text95        0532A
__ptext96                                            text96        04F18
__ptext97                                            text97        05344
__ptext98                                            text98        0544A
__ptext99                                            text99        04E22
__ramtop                                             ramtop        01000
__size_of_ARPInit                                    (abs)         00000
__size_of_ARPIsResolved                              (abs)         00000
__size_of_ARPProcess                                 (abs)         00000
__size_of_ARPPut                                     (abs)         00000
__size_of_ARPResolve                                 (abs)         00000
__size_of_Beep                                       (abs)         00000
__size_of_BeepTimerUpdate                            (abs)         00000
__size_of_CalcIPBufferChecksum                       (abs)         00000
__size_of_CalcIPChecksum                             (abs)         00000
__size_of_CheckConfigDataWaitTimer                   (abs)         00000
__size_of_CheckConnectionResponseWaitTimer           (abs)         00000
__size_of_CheckDoorTimer                             (abs)         00000
__size_of_CheckFlashingLEDTimer                      (abs)         00000
__size_of_CheckHeartBeatTimer                        (abs)         00000
__size_of_CheckIfFirstTimeConnection                 (abs)         00000
__size_of_CheckKeypad                                (abs)         00000
__size_of_CheckWaitForCodeTimer                      (abs)         00000
__size_of_DHCPDisable                                (abs)         00000
__size_of_DHCPEnable                                 (abs)         00000
__size_of_DHCPInit                                   (abs)         00000
__size_of_DHCPIsBound                                (abs)         00000
__size_of_DHCPTask                                   (abs)         00000
__size_of_DelayMs                                    (abs)         00000
__size_of_DoorIndicatorGetStatus                     (abs)         00000
__size_of_DoorIndicatorTimerUpdate                   (abs)         00000
__size_of_DoorIndicatorUpdateConfig                  (abs)         00000
__size_of_DoorSwitchTimerUpdate                      (abs)         00000
__size_of_DoorSwitchUpdateConfig                     (abs)         00000
__size_of_FindMatchingSocket                         (abs)         00000
__size_of_FormatNetBIOSName                          (abs)         00000
__size_of_GenerateRandomDWORD                        (abs)         00000
__size_of_GetTickCopy                                (abs)         00000
__size_of_GetWiegandCode                             (abs)         00000
__size_of_HandleConfigData                           (abs)         00000
__size_of_HandleConnectionResponse                   (abs)         00000
__size_of_HandleReceivedBytes                        (abs)         00000
__size_of_HighISR                                    (abs)         00000
__size_of_ICMPProcess                                (abs)         00000
__size_of_IPGetHeader                                (abs)         00000
__size_of_IPPutHeader                                (abs)         00000
__size_of_IPSetRxBuffer                              (abs)         00000
__size_of_InitAppConfig                              (abs)         00000
__size_of_InitStartState                             (abs)         00000
__size_of_InitializeBoard                            (abs)         00000
__size_of_IsDoorSwitchPressed                        (abs)         00000
__size_of_KeyPressedResetIdleTimer                   (abs)         00000
__size_of_LFSRRand                                   (abs)         00000
__size_of_LFSRSeedRand                               (abs)         00000
__size_of_LowISR                                     (abs)         00000
__size_of_MACCalcRxChecksum                          (abs)         00000
__size_of_MACDiscardRx                               (abs)         00000
__size_of_MACFlush                                   (abs)         00000
__size_of_MACGet                                     (abs)         00000
__size_of_MACGetArray                                (abs)         00000
__size_of_MACGetHeader                               (abs)         00000
__size_of_MACInit                                    (abs)         00000
__size_of_MACIsLinked                                (abs)         00000
__size_of_MACIsMemCopyDone                           (abs)         00000
__size_of_MACIsTxReady                               (abs)         00000
__size_of_MACMemCopyAsync                            (abs)         00000
__size_of_MACPut                                     (abs)         00000
__size_of_MACPutArray                                (abs)         00000
__size_of_MACPutHeader                               (abs)         00000
__size_of_MACSetReadPtr                              (abs)         00000
__size_of_MACSetReadPtrInRx                          (abs)         00000
__size_of_MACSetWritePtr                             (abs)         00000
__size_of_MiscHexStringToByte                        (abs)         00000
__size_of_NDCFSM                                     (abs)         00000
__size_of_NDCGetRelayActiveTime                      (abs)         00000
__size_of_NDCInitData                                (abs)         00000
__size_of_NDCResetState                              (abs)         00000
__size_of_NDCTick                                    (abs)         00000
__size_of_OpenUDPsocket                              (abs)         00000
__size_of_ProcessDoorIndicator                       (abs)         00000
__size_of_ProcessDoorIndicatorIsClosed               (abs)         00000
__size_of_ProcessDoorIndicatorIsOpen                 (abs)         00000
__size_of_ProcessDoorSwitch                          (abs)         00000
__size_of_ProcessDoorSwitchIsPressed                 (abs)         00000
__size_of_ProcessDoorSwitchIsReleased                (abs)         00000
__size_of_ProcessStateDoorIndicatorClosed            (abs)         00000
__size_of_ProcessStateDoorIndicatorOpen              (abs)         00000
__size_of_ProcessStateDoorIndicatorOpenTooLong       (abs)         00000
__size_of_ProcessStateDoorSwitchIdle                 (abs)         00000
__size_of_ProcessStateDoorSwitchPressed              (abs)         00000
__size_of_ProcessStateDoorSwitchPressedTooLong       (abs)         00000
__size_of_RTC                                        (abs)         00000
__size_of_ReadPHYReg                                 (abs)         00000
__size_of_SendConnectionRequest                      (abs)         00000
__size_of_SendDeviceReadySignal                      (abs)         00000
__size_of_SendDoorClosedEvent                        (abs)         00000
__size_of_SendDoorOpenEvent                          (abs)         00000
__size_of_SendDoorOpenTooLongEvent                   (abs)         00000
__size_of_SendDoorStatus                             (abs)         00000
__size_of_SendDoorSwitchPressedEvent                 (abs)         00000
__size_of_SendDoorSwitchPressedTooLongEvent          (abs)         00000
__size_of_SendDoorTimerExpiredEvent                  (abs)         00000
__size_of_SendFirstConnectionMadeEvent               (abs)         00000
__size_of_SendGetConfigData                          (abs)         00000
__size_of_SendHeartBeat                              (abs)         00000
__size_of_SendUDPMessage                             (abs)         00000
__size_of_SendVersionString                          (abs)         00000
__size_of_StackInit                                  (abs)         00000
__size_of_StackTask                                  (abs)         00000
__size_of_SwapARPPacket                              (abs)         00000
__size_of_SwapIPHeader                               (abs)         00000
__size_of_TickGet                                    (abs)         00000
__size_of_TickGetDiv256                              (abs)         00000
__size_of_TickInit                                   (abs)         00000
__size_of_TickUpdate                                 (abs)         00000
__size_of_UDPClose                                   (abs)         00000
__size_of_UDPDiscard                                 (abs)         00000
__size_of_UDPFlush                                   (abs)         00000
__size_of_UDPGet                                     (abs)         00000
__size_of_UDPGetArray                                (abs)         00000
__size_of_UDPInit                                    (abs)         00000
__size_of_UDPIsGetReady                              (abs)         00000
__size_of_UDPIsPutReady                              (abs)         00000
__size_of_UDPOpenEx                                  (abs)         00000
__size_of_UDPProcess                                 (abs)         00000
__size_of_UDPPut                                     (abs)         00000
__size_of_UDPPutArray                                (abs)         00000
__size_of_UDPSetRxBuffer                             (abs)         00000
__size_of_UDPSetTxBuffer                             (abs)         00000
__size_of_UDPTask                                    (abs)         00000
__size_of_WritePHYReg                                (abs)         00000
__size_of_XEEInit                                    (abs)         00000
__size_of__DHCPReceive                               (abs)         00000
__size_of__DHCPSend                                  (abs)         00000
__size_of___awdiv                                    (abs)         00000
__size_of___lldiv                                    (abs)         00000
__size_of___llmod                                    (abs)         00000
__size_of___lwmod                                    (abs)         00000
__size_of_isDoorIndicatorOpen                        (abs)         00000
__size_of_isOpenDoorFlag                             (abs)         00000
__size_of_ltoa                                       (abs)         00000
__size_of_main                                       (abs)         00000
__size_of_memcpy                                     (abs)         00000
__size_of_memset                                     (abs)         00000
__size_of_setDoorOpen                                (abs)         00000
__size_of_strupr                                     (abs)         00000
__size_of_swaps                                      (abs)         00000
__size_of_ultoa                                      (abs)         00000
__size_ofi1_GetTickCopy                              (abs)         00000
__size_ofi1_TickGet                                  (abs)         00000
__smallconst                                         smallconst    01000
_activeUDPSocket                                     bssBANK0      000CE
_doorIndicatorState                                  bssCOMRAM     0003D
_doorSwitchState                                     bssBANK0      000CF
_dwInternalTicks                                     bssBANK1      00120
_dwLFSRRandSeed                                      dataBANK1     001DA
_g_serializedMACAddress                              bssBANK0      000F9
_g_wiegandFlag                                       bssBANK0      000D0
_isDoorIndicatorOpen                                 text29        04D76
_isDoorIndicatorOpenFlagCachedValue                  bssBANK0      000D1
_isOpenDoorFlag                                      text19        054D0
_ltoa                                                text58        04BEE
_m_NBSNodeInfo                                       bssBANK1      001AC
_m_beepFlag                                          bssBANK1      00176
_m_beepTimer                                         bssBANK1      00124
_m_beepValue                                         bssBANK1      00128
_m_bytesAvailable                                    bssBANK0      000C9
_m_bytesRead                                         bssBANK0      000CB
_m_codeLength                                        bssBANK0      000D2
_m_config                                            bssBANK1      001C0
_m_doorIndicatorInvertPolarityFlag                   bssCOMRAM     0003E
_m_doorIndicatorOpenTooLongFunctionalityActiveFlag   bssBANK0      000D3
_m_doorIndicatorOpenTooLongTimer                     bssBANK1      0012C
_m_doorIndicatorOpenTooLongTimerStartValue           dataBANK1     001DE
_m_doorIndicatorProcessDelayTimer                    bssBANK1      00130
_m_doorSwitchInvertPolarityFlag                      bssBANK0      000D4
_m_doorSwitchPressedTooLongFunctionalityIsActiveFlag bssCOMRAM     0003F
_m_doorSwitchPressedTooLongTimer                     bssBANK1      00134
_m_doorSwitchPressedTooLongTimerStartValue           dataBANK1     001E2
_m_firstConnectionAfterBootFlag                      dataBANK1     001E7
_m_flashDiodeEnable                                  bssCOMRAM     00040
_m_flashDiodeState                                   bssBANK0      000D5
_m_keyPressedFlag                                    bssBANK0      000D6
_m_messageBuffer                                     bssBIGRAM     00341
_m_openDoorFlag                                      bssBANK0      000D7
_m_openDoorTime                                      bssBANK1      00138
_m_sentBytes                                         bssBANK1      0016C
_m_state                                             bssBANK0      000D8
_m_tempDoorTime                                      bssBANK1      0013C
_m_timer2postscaler                                  bssBANK1      00177
_m_timerFlashDiod                                    bssBANK1      00140
_m_timerKeyPressed                                   bssBANK1      00144
_m_timerReceiveHeartbeat                             bssBANK1      00148
_m_timerSendHeartbeat                                bssBANK1      0014C
_m_timerState                                        bssBANK1      00150
_m_timerWaitForPinCode                               bssBANK1      00154
_m_tmpInt                                            bssCOMRAM     00035
_m_tmpLong                                           bssCOMRAM     0002F
_m_udpSocket                                         bssCOMRAM     00041
_m_userCode                                          bssBANK1      00114
_m_waitForCodeTime                                   bssBANK1      0016E
_m_wiegandCode                                       bssBANK1      00158
_m_wiegandCounter                                    bssCOMRAM     00042
_main                                                text0         0307E
_memcpy                                              text130       047DC
_memset                                              text93        05020
_networkState                                        bssBANK1      00178
_remoteNode                                          bssBANK1      001B6
_setDoorOpen                                         text18        04FCC
_strupr                                              text132       04DEA
_swaps                                               text110       05284
_toRotate                                            bssBANK1      0015C
_ultoa                                               text59        02DC6
_vTickReading                                        bssCOMRAM     00029
_wGetOffset                                          bssCOMRAM     00037
_wPutOffset                                          bssCOMRAM     00039
_wTXWatchdog                                         bssBANK1      00170
btemp                                                temp          00044
end_of_initialization                                cinit         03D36
i1TickGet@dw                                         cstackCOMRAM  00005
i1_GetTickCopy                                       text142       05074
i1_TickGet                                           text141       0515E
int$flags                                            temp          00044
int_func                                             intcode_body  03FEA
intlevel0                                            text          00000
intlevel1                                            text          00000
intlevel2                                            text          00000
intlevel3                                            text          00000
ltoa@base                                            cstackBANK0   00073
ltoa@buf                                             cstackBANK0   0006D
ltoa@val                                             cstackBANK0   0006F
main@localTimer                                      bssBANK1      00160
memcpy@d                                             cstackCOMRAM  00022
memcpy@d1                                            cstackCOMRAM  0001C
memcpy@n                                             cstackCOMRAM  00020
memcpy@s                                             cstackCOMRAM  00024
memcpy@s1                                            cstackCOMRAM  0001E
memset@c                                             cstackCOMRAM  0001E
memset@n                                             cstackCOMRAM  00020
memset@p                                             cstackCOMRAM  00022
memset@p1                                            cstackCOMRAM  0001C
setDoorOpen@time                                     cstackBANK0   00060
stackhi                                              (abs)         00E7F
stacklo                                              (abs)         00535
start                                                init          0005E
start_initialization                                 cinit         03CB4
strupr@c                                             cstackCOMRAM  0001E
strupr@s                                             cstackCOMRAM  0001C
strupr@t                                             cstackCOMRAM  0001F
swaps@b                                              cstackCOMRAM  0001E
swaps@t                                              cstackCOMRAM  0001F
swaps@v                                              cstackCOMRAM  0001C
ultoa@base                                           cstackBANK0   00066
ultoa@buf                                            cstackBANK0   00060
ultoa@c                                              cstackBANK0   0006C
ultoa@v                                              cstackBANK0   00068
ultoa@val                                            cstackBANK0   00062


FUNCTION INFORMATION:

 *************** function _main *****************
 Defined at:
		line 111 in file "../src/main.c"
 Parameters:    Size  Location     Type
		None
 Auto vars:     Size  Location     Type
		None
 Return value:  Size  Location     Type
		None               void
 Registers used:
		wreg, fsr1l, fsr1h, fsr2l, fsr2h, status,2, status,0, tblptrl, tblptrh, tblptru, prodl, prodh, cstack
 Tracked objects:
		On entry : 
		On exit  : 
		Unchanged: 
 Data sizes:     COMRAM   BANK0   BANK1   BANK2   BANK3   BANK4   BANK5   BANK6   BANK7   BANK8   BANK9  BANK10  BANK11  BANK12  BANK13  BANK14  BANK15
      Params:         0       0       0       0       0       0       0       0       0       0       0       0       0       0       0       0       0
      Locals:         0       0       0       0       0       0       0       0       0       0       0       0       0       0       0       0       0
      Temps:          0       0       4       0       0       0       0       0       0       0       0       0       0       0       0       0       0
      Totals:         0       0       4       0       0       0       0       0       0       0       0       0       0       0       0       0       0
Total ram usage:        4 bytes
 Hardware stack levels required when called:   19
 This function calls:
		_DHCPEnable
		_DHCPIsBound
		_InitAppConfig
		_InitializeBoard
		_MACIsLinked
		_NDCFSM
		_NDCInitData
		_NDCResetState
		_ProcessDoorIndicator
		_ProcessDoorSwitch
		_StackInit
		_StackTask
		_TickGet
		_TickInit
		_XEEInit
 This function is called by:
		Startup code after reset
 This function uses a non-reentrant model


 *************** function _XEEInit *****************
 Defined at:
		line 140 in file "../framework/tcpip/src/common/spi_eeprom.c"
 Parameters:    Size  Location     Type
		None
 Auto vars:     Size  Location     Type
		None
 Return value:  Size  Location     Type
		None               void
 Registers used:
		wreg, status,2
 Tracked objects:
		On entry : 
		On exit  : 
		Unchanged: 
 Data sizes:     COMRAM   BANK0   BANK1   BANK2   BANK3   BANK4   BANK5   BANK6   BANK7   BANK8   BANK9  BANK10  BANK11  BANK12  BANK13  BANK14  BANK15
      Params:         0       0       0       0       0       0       0       0       0       0       0       0       0       0       0       0       0
      Locals:         0       0       0       0       0       0       0       0       0       0       0       0       0       0       0       0       0
      Temps:          0       0       0       0       0       0       0       0       0       0       0       0       0       0       0       0       0
      Totals:         0       0       0       0       0       0       0       0       0       0       0       0       0       0       0       0       0
Total ram usage:        0 bytes
 Hardware stack levels used:    1
 Hardware stack levels required when called:    6
 This function calls:
		Nothing
 This function is called by:
		_main
 This function uses a non-reentrant model


 *************** function _TickInit *****************
 Defined at:
		line 78 in file "../framework/tcpip/src/common/tick.c"
 Parameters:    Size  Location     Type
		None
 Auto vars:     Size  Location     Type
		None
 Return value:  Size  Location     Type
		None               void
 Registers used:
		wreg, status,2
 Tracked objects:
		On entry : 
		On exit  : 
		Unchanged: 
 Data sizes:     COMRAM   BANK0   BANK1   BANK2   BANK3   BANK4   BANK5   BANK6   BANK7   BANK8   BANK9  BANK10  BANK11  BANK12  BANK13  BANK14  BANK15
      Params:         0       0       0       0       0       0       0       0       0       0       0       0       0       0       0       0       0
      Locals:         0       0       0       0       0       0       0       0       0       0       0       0       0       0       0       0       0
      Temps:          0       0       0       0       0       0       0       0       0       0       0       0       0       0       0       0       0
      Totals:         0       0       0       0       0       0       0       0       0       0       0       0       0       0       0       0       0
Total ram usage:        0 bytes
 Hardware stack levels used:    1
 Hardware stack levels required when called:    6
 This function calls:
		Nothing
 This function is called by:
		_main
 This function uses a non-reentrant model


 *************** function _StackInit *****************
 Defined at:
		line 98 in file "../framework/tcpip/src/common/stack_task.c"
 Parameters:    Size  Location     Type
		None
 Auto vars:     Size  Location     Type
		None
 Return value:  Size  Location     Type
		None               void
 Registers used:
		wreg, fsr2l, fsr2h, status,2, status,0, prodl, prodh, cstack
 Tracked objects:
		On entry : 
		On exit  : 
		Unchanged: 
 Data sizes:     COMRAM   BANK0   BANK1   BANK2   BANK3   BANK4   BANK5   BANK6   BANK7   BANK8   BANK9  BANK10  BANK11  BANK12  BANK13  BANK14  BANK15
      Params:         0       0       0       0       0       0       0       0       0       0       0       0       0       0       0       0       0
      Locals:         0       4       0       0       0       0       0       0       0       0       0       0       0       0       0       0       0
      Temps:          0       0       0       0       0       0       0       0       0       0       0       0       0       0       0       0       0
      Totals:         0       4       0       0       0       0       0       0       0       0       0       0       0       0       0       0       0
Total ram usage:        4 bytes
 Hardware stack levels used:    1
 Hardware stack levels required when called:    9
 This function calls:
		_ARPInit
		_DHCPDisable
		_DHCPInit
		_GenerateRandomDWORD
		_LFSRSeedRand
		_MACInit
		_UDPInit
 This function is called by:
		_main
 This function uses a non-reentrant model


 *************** function _UDPInit *****************
 Defined at:
		line 107 in file "../framework/tcpip/src/udp.c"
 Parameters:    Size  Location     Type
		None
 Auto vars:     Size  Location     Type
  s               1   28[COMRAM] unsigned char 
 Return value:  Size  Location     Type
		None               void
 Registers used:
		wreg, fsr2l, fsr2h, status,2, status,0, prodl, prodh, cstack
 Tracked objects:
		On entry : 
		On exit  : 
		Unchanged: 
 Data sizes:     COMRAM   BANK0   BANK1   BANK2   BANK3   BANK4   BANK5   BANK6   BANK7   BANK8   BANK9  BANK10  BANK11  BANK12  BANK13  BANK14  BANK15
      Params:         0       0       0       0       0       0       0       0       0       0       0       0       0       0       0       0       0
      Locals:         1       0       0       0       0       0       0       0       0       0       0       0       0       0       0       0       0
      Temps:          0       0       0       0       0       0       0       0       0       0       0       0       0       0       0       0       0
      Totals:         1       0       0       0       0       0       0       0       0       0       0       0       0       0       0       0       0
Total ram usage:        1 bytes
 Hardware stack levels used:    1
 Hardware stack levels required when called:    7
 This function calls:
		_UDPClose
 This function is called by:
		_StackInit
 This function uses a non-reentrant model


 *************** function _MACInit *****************
 Defined at:
		line 118 in file "../framework/tcpip/src/eth97j60.c"
 Parameters:    Size  Location     Type
		None
 Auto vars:     Size  Location     Type
  i               1    0        unsigned char 
 Return value:  Size  Location     Type
		None               void
 Registers used:
		wreg, status,2, status,0, cstack
 Tracked objects:
		On entry : 
		On exit  : 
		Unchanged: 
 Data sizes:     COMRAM   BANK0   BANK1   BANK2   BANK3   BANK4   BANK5   BANK6   BANK7   BANK8   BANK9  BANK10  BANK11  BANK12  BANK13  BANK14  BANK15
      Params:         0       0       0       0       0       0       0       0       0       0       0       0       0       0       0       0       0
      Locals:         0       0       0       0       0       0       0       0       0       0       0       0       0       0       0       0       0
      Temps:          0       0       0       0       0       0       0       0       0       0       0       0       0       0       0       0       0
      Totals:         0       0       0       0       0       0       0       0       0       0       0       0       0       0       0       0       0
Total ram usage:        0 bytes
 Hardware stack levels used:    1
 Hardware stack levels required when called:    7
 This function calls:
		_MACPut
		_WritePHYReg
 This function is called by:
		_StackInit
 This function uses a non-reentrant model


 *************** function _WritePHYReg *****************
 Defined at:
		line 1188 in file "../framework/tcpip/src/eth97j60.c"
 Parameters:    Size  Location     Type
  Register        1    wreg     unsigned char 
  Data            2   27[COMRAM] unsigned int 
 Auto vars:     Size  Location     Type
  Register        1   29[COMRAM] unsigned char 
  GIESave         1   30[COMRAM] unsigned char 
 Return value:  Size  Location     Type
		None               void
 Registers used:
		wreg, status,2, status,0
 Tracked objects:
		On entry : 
		On exit  : 
		Unchanged: 
 Data sizes:     COMRAM   BANK0   BANK1   BANK2   BANK3   BANK4   BANK5   BANK6   BANK7   BANK8   BANK9  BANK10  BANK11  BANK12  BANK13  BANK14  BANK15
      Params:         2       0       0       0       0       0       0       0       0       0       0       0       0       0       0       0       0
      Locals:         2       0       0       0       0       0       0       0       0       0       0       0       0       0       0       0       0
      Temps:          0       0       0       0       0       0       0       0       0       0       0       0       0       0       0       0       0
      Totals:         4       0       0       0       0       0       0       0       0       0       0       0       0       0       0       0       0
Total ram usage:        4 bytes
 Hardware stack levels used:    1
 Hardware stack levels required when called:    6
 This function calls:
		Nothing
 This function is called by:
		_MACInit
 This function uses a non-reentrant model


 *************** function _GenerateRandomDWORD *****************
 Defined at:
		line 197 in file "../framework/tcpip/src/common/helpers.c"
 Parameters:    Size  Location     Type
		None
 Auto vars:     Size  Location     Type
  TMR0LSave       1   33[BANK0 ] unsigned char 
  TMR0HSave       1   32[BANK0 ] unsigned char 
  T0CONSave       1   31[BANK0 ] unsigned char 
  ADCON2Save      1   30[BANK0 ] unsigned char 
  ADCON0Save      1   29[BANK0 ] unsigned char 
  randomResult    4   36[BANK0 ] struct .
  dwTotalTime     4   24[BANK0 ] unsigned long 
  wTime           2   40[BANK0 ] unsigned int 
  wLastValue      2   34[BANK0 ] unsigned int 
  w               2   22[BANK0 ] unsigned int 
  vBitCount       1   28[BANK0 ] unsigned char 
 Return value:  Size  Location     Type
                  4   16[BANK0 ] unsigned long 
 Registers used:
		wreg, status,2, status,0, cstack
 Tracked objects:
		On entry : 
		On exit  : 
		Unchanged: 
 Data sizes:     COMRAM   BANK0   BANK1   BANK2   BANK3   BANK4   BANK5   BANK6   BANK7   BANK8   BANK9  BANK10  BANK11  BANK12  BANK13  BANK14  BANK15
      Params:         0       4       0       0       0       0       0       0       0       0       0       0       0       0       0       0       0
      Locals:         0      20       0       0       0       0       0       0       0       0       0       0       0       0       0       0       0
      Temps:          0       2       0       0       0       0       0       0       0       0       0       0       0       0       0       0       0
      Totals:         0      26       0       0       0       0       0       0       0       0       0       0       0       0       0       0       0
Total ram usage:       26 bytes
 Hardware stack levels used:    1
 Hardware stack levels required when called:    8
 This function calls:
		_LFSRRand
		_LFSRSeedRand
 This function is called by:
		_StackInit
 This function uses a non-reentrant model


 *************** function _LFSRSeedRand *****************
 Defined at:
		line 86 in file "../framework/tcpip/src/common/helpers.c"
 Parameters:    Size  Location     Type
  dwSeed          4   30[COMRAM] unsigned long 
 Auto vars:     Size  Location     Type
  dwOldSeed       4    0        unsigned long 
  i               1   38[COMRAM] unsigned char 
 Return value:  Size  Location     Type
                  4   30[COMRAM] unsigned long 
 Registers used:
		wreg, status,2, status,0, cstack
 Tracked objects:
		On entry : 
		On exit  : 
		Unchanged: 
 Data sizes:     COMRAM   BANK0   BANK1   BANK2   BANK3   BANK4   BANK5   BANK6   BANK7   BANK8   BANK9  BANK10  BANK11  BANK12  BANK13  BANK14  BANK15
      Params:         4       0       0       0       0       0       0       0       0       0       0       0       0       0       0       0       0
      Locals:         5       0       0       0       0       0       0       0       0       0       0       0       0       0       0       0       0
      Temps:          0       0       0       0       0       0       0       0       0       0       0       0       0       0       0       0       0
      Totals:         9       0       0       0       0       0       0       0       0       0       0       0       0       0       0       0       0
Total ram usage:        9 bytes
 Hardware stack levels used:    1
 Hardware stack levels required when called:    7
 This function calls:
		_LFSRRand
 This function is called by:
		_GenerateRandomDWORD
		_StackInit
 This function uses a non-reentrant model


 *************** function _DHCPDisable *****************
 Defined at:
		line 214 in file "../framework/tcpip/src/dhcp_client.c"
 Parameters:    Size  Location     Type
  vInterface      1    wreg     unsigned char 
 Auto vars:     Size  Location     Type
  vInterface      1    0[COMRAM] unsigned char 
 Return value:  Size  Location     Type
		None               void
 Registers used:
		wreg, fsr2l, fsr2h, status,2, status,0, prodl, prodh, cstack
 Tracked objects:
		On entry : 
		On exit  : 
		Unchanged: 
 Data sizes:     COMRAM   BANK0   BANK1   BANK2   BANK3   BANK4   BANK5   BANK6   BANK7   BANK8   BANK9  BANK10  BANK11  BANK12  BANK13  BANK14  BANK15
      Params:         0       0       0       0       0       0       0       0       0       0       0       0       0       0       0       0       0
      Locals:         0       0       0       0       0       0       0       0       0       0       0       0       0       0       0       0       0
      Temps:          0       0       0       0       0       0       0       0       0       0       0       0       0       0       0       0       0
      Totals:         0       0       0       0       0       0       0       0       0       0       0       0       0       0       0       0       0
Total ram usage:        0 bytes
 Hardware stack levels used:    1
 Hardware stack levels required when called:    7
 This function calls:
		_UDPClose
 This function is called by:
		_StackInit
 This function uses a non-reentrant model


 *************** function _ARPInit *****************
 Defined at:
		line 347 in file "../framework/tcpip/src/arp.c"
 Parameters:    Size  Location     Type
		None
 Auto vars:     Size  Location     Type
		None
 Return value:  Size  Location     Type
		None               void
 Registers used:
		None
 Tracked objects:
		On entry : 
		On exit  : 
		Unchanged: 
 Data sizes:     COMRAM   BANK0   BANK1   BANK2   BANK3   BANK4   BANK5   BANK6   BANK7   BANK8   BANK9  BANK10  BANK11  BANK12  BANK13  BANK14  BANK15
      Params:         0       0       0       0       0       0       0       0       0       0       0       0       0       0       0       0       0
      Locals:         0       0       0       0       0       0       0       0       0       0       0       0       0       0       0       0       0
      Temps:          0       0       0       0       0       0       0       0       0       0       0       0       0       0       0       0       0
      Totals:         0       0       0       0       0       0       0       0       0       0       0       0       0       0       0       0       0
Total ram usage:        0 bytes
 Hardware stack levels used:    1
 Hardware stack levels required when called:    6
 This function calls:
		Nothing
 This function is called by:
		_StackInit
 This function uses a non-reentrant model


 *************** function _ProcessDoorSwitch *****************
 Defined at:
		line 59 in file "../src/DoorSwitch.c"
 Parameters:    Size  Location     Type
		None
 Auto vars:     Size  Location     Type
		None
 Return value:  Size  Location     Type
		None               void
 Registers used:
		wreg, fsr1l, fsr1h, fsr2l, fsr2h, status,2, status,0, tblptrl, tblptrh, tblptru, prodl, prodh, cstack
 Tracked objects:
		On entry : 
		On exit  : 
		Unchanged: 
 Data sizes:     COMRAM   BANK0   BANK1   BANK2   BANK3   BANK4   BANK5   BANK6   BANK7   BANK8   BANK9  BANK10  BANK11  BANK12  BANK13  BANK14  BANK15
      Params:         0       0       0       0       0       0       0       0       0       0       0       0       0       0       0       0       0
      Locals:         0       0       0       0       0       0       0       0       0       0       0       0       0       0       0       0       0
      Temps:          0       0       0       0       0       0       0       0       0       0       0       0       0       0       0       0       0
      Totals:         0       0       0       0       0       0       0       0       0       0       0       0       0       0       0       0       0
Total ram usage:        0 bytes
 Hardware stack levels used:    1
 Hardware stack levels required when called:   18
 This function calls:
		_ProcessStateDoorSwitchIdle
		_ProcessStateDoorSwitchPressed
		_ProcessStateDoorSwitchPressedTooLong
 This function is called by:
		_main
 This function uses a non-reentrant model


 *************** function _ProcessStateDoorSwitchPressedTooLong *****************
 Defined at:
		line 142 in file "../src/DoorSwitch.c"
 Parameters:    Size  Location     Type
		None
 Auto vars:     Size  Location     Type
		None
 Return value:  Size  Location     Type
		None               void
 Registers used:
		wreg, fsr2l, fsr2h, status,2, cstack
 Tracked objects:
		On entry : 
		On exit  : 
		Unchanged: 
 Data sizes:     COMRAM   BANK0   BANK1   BANK2   BANK3   BANK4   BANK5   BANK6   BANK7   BANK8   BANK9  BANK10  BANK11  BANK12  BANK13  BANK14  BANK15
      Params:         0       0       0       0       0       0       0       0       0       0       0       0       0       0       0       0       0
      Locals:         0       0       0       0       0       0       0       0       0       0       0       0       0       0       0       0       0
      Temps:          0       0       0       0       0       0       0       0       0       0       0       0       0       0       0       0       0
      Totals:         0       0       0       0       0       0       0       0       0       0       0       0       0       0       0       0       0
Total ram usage:        0 bytes
 Hardware stack levels used:    1
 Hardware stack levels required when called:    9
 This function calls:
		_Beep
		_IsDoorSwitchPressed
 This function is called by:
		_ProcessDoorSwitch
 This function uses a non-reentrant model


 *************** function _ProcessStateDoorSwitchPressed *****************
 Defined at:
		line 126 in file "../src/DoorSwitch.c"
 Parameters:    Size  Location     Type
		None
 Auto vars:     Size  Location     Type
		None
 Return value:  Size  Location     Type
		None               void
 Registers used:
		wreg, fsr1l, fsr1h, fsr2l, fsr2h, status,2, status,0, tblptrl, tblptrh, tblptru, prodl, prodh, cstack
 Tracked objects:
		On entry : 
		On exit  : 
		Unchanged: 
 Data sizes:     COMRAM   BANK0   BANK1   BANK2   BANK3   BANK4   BANK5   BANK6   BANK7   BANK8   BANK9  BANK10  BANK11  BANK12  BANK13  BANK14  BANK15
      Params:         0       0       0       0       0       0       0       0       0       0       0       0       0       0       0       0       0
      Locals:         0       0       0       0       0       0       0       0       0       0       0       0       0       0       0       0       0
      Temps:          0       0       0       0       0       0       0       0       0       0       0       0       0       0       0       0       0
      Totals:         0       0       0       0       0       0       0       0       0       0       0       0       0       0       0       0       0
Total ram usage:        0 bytes
 Hardware stack levels used:    1
 Hardware stack levels required when called:   16
 This function calls:
		_IsDoorSwitchPressed
		_SendDoorSwitchPressedTooLongEvent
 This function is called by:
		_ProcessDoorSwitch
 This function uses a non-reentrant model


 *************** function _SendDoorSwitchPressedTooLongEvent *****************
 Defined at:
		line 531 in file "../src/NDC.c"
 Parameters:    Size  Location     Type
		None
 Auto vars:     Size  Location     Type
		None
 Return value:  Size  Location     Type
		None               void
 Registers used:
		wreg, fsr1l, fsr1h, fsr2l, fsr2h, status,2, status,0, tblptrl, tblptrh, tblptru, prodl, prodh, cstack
 Tracked objects:
		On entry : 
		On exit  : 
		Unchanged: 
 Data sizes:     COMRAM   BANK0   BANK1   BANK2   BANK3   BANK4   BANK5   BANK6   BANK7   BANK8   BANK9  BANK10  BANK11  BANK12  BANK13  BANK14  BANK15
      Params:         0       0       0       0       0       0       0       0       0       0       0       0       0       0       0       0       0
      Locals:         0       0       0       0       0       0       0       0       0       0       0       0       0       0       0       0       0
      Temps:          0       0       0       0       0       0       0       0       0       0       0       0       0       0       0       0       0
      Totals:         0       0       0       0       0       0       0       0       0       0       0       0       0       0       0       0       0
Total ram usage:        0 bytes
 Hardware stack levels used:    1
 Hardware stack levels required when called:   15
 This function calls:
		_SendUDPMessage
 This function is called by:
		_ProcessStateDoorSwitchPressed
 This function uses a non-reentrant model


 *************** function _ProcessStateDoorSwitchIdle *****************
 Defined at:
		line 75 in file "../src/DoorSwitch.c"
 Parameters:    Size  Location     Type
		None
 Auto vars:     Size  Location     Type
		None
 Return value:  Size  Location     Type
		None               void
 Registers used:
		wreg, fsr1l, fsr1h, fsr2l, fsr2h, status,2, status,0, tblptrl, tblptrh, tblptru, prodl, prodh, cstack
 Tracked objects:
		On entry : 
		On exit  : 
		Unchanged: 
 Data sizes:     COMRAM   BANK0   BANK1   BANK2   BANK3   BANK4   BANK5   BANK6   BANK7   BANK8   BANK9  BANK10  BANK11  BANK12  BANK13  BANK14  BANK15
      Params:         0       0       0       0       0       0       0       0       0       0       0       0       0       0       0       0       0
      Locals:         0       0       0       0       0       0       0       0       0       0       0       0       0       0       0       0       0
      Temps:          0       0       0       0       0       0       0       0       0       0       0       0       0       0       0       0       0
      Totals:         0       0       0       0       0       0       0       0       0       0       0       0       0       0       0       0       0
Total ram usage:        0 bytes
 Hardware stack levels used:    1
 Hardware stack levels required when called:   17
 This function calls:
		_IsDoorSwitchPressed
		_ProcessDoorSwitchIsPressed
		_ProcessDoorSwitchIsReleased
 This function is called by:
		_ProcessDoorSwitch
 This function uses a non-reentrant model


 *************** function _ProcessDoorSwitchIsReleased *****************
 Defined at:
		line 121 in file "../src/DoorSwitch.c"
 Parameters:    Size  Location     Type
		None
 Auto vars:     Size  Location     Type
		None
 Return value:  Size  Location     Type
		None               void
 Registers used:
		None
 Tracked objects:
		On entry : 
		On exit  : 
		Unchanged: 
 Data sizes:     COMRAM   BANK0   BANK1   BANK2   BANK3   BANK4   BANK5   BANK6   BANK7   BANK8   BANK9  BANK10  BANK11  BANK12  BANK13  BANK14  BANK15
      Params:         0       0       0       0       0       0       0       0       0       0       0       0       0       0       0       0       0
      Locals:         0       0       0       0       0       0       0       0       0       0       0       0       0       0       0       0       0
      Temps:          0       0       0       0       0       0       0       0       0       0       0       0       0       0       0       0       0
      Totals:         0       0       0       0       0       0       0       0       0       0       0       0       0       0       0       0       0
Total ram usage:        0 bytes
 Hardware stack levels used:    1
 Hardware stack levels required when called:    6
 This function calls:
		Nothing
 This function is called by:
		_ProcessStateDoorSwitchIdle
 This function uses a non-reentrant model


 *************** function _ProcessDoorSwitchIsPressed *****************
 Defined at:
		line 84 in file "../src/DoorSwitch.c"
 Parameters:    Size  Location     Type
		None
 Auto vars:     Size  Location     Type
		None
 Return value:  Size  Location     Type
		None               void
 Registers used:
		wreg, fsr1l, fsr1h, fsr2l, fsr2h, status,2, status,0, tblptrl, tblptrh, tblptru, prodl, prodh, cstack
 Tracked objects:
		On entry : 
		On exit  : 
		Unchanged: 
 Data sizes:     COMRAM   BANK0   BANK1   BANK2   BANK3   BANK4   BANK5   BANK6   BANK7   BANK8   BANK9  BANK10  BANK11  BANK12  BANK13  BANK14  BANK15
      Params:         0       0       0       0       0       0       0       0       0       0       0       0       0       0       0       0       0
      Locals:         0       0       0       0       0       0       0       0       0       0       0       0       0       0       0       0       0
      Temps:          0       0       0       0       0       0       0       0       0       0       0       0       0       0       0       0       0
      Totals:         0       0       0       0       0       0       0       0       0       0       0       0       0       0       0       0       0
Total ram usage:        0 bytes
 Hardware stack levels used:    1
 Hardware stack levels required when called:   16
 This function calls:
		_NDCGetRelayActiveTime
		_SendDoorSwitchPressedEvent
		_isOpenDoorFlag
		_setDoorOpen
 This function is called by:
		_ProcessStateDoorSwitchIdle
 This function uses a non-reentrant model


 *************** function _setDoorOpen *****************
 Defined at:
		line 417 in file "../src/NDC.c"
 Parameters:    Size  Location     Type
  time            4    0[BANK0 ] long 
 Auto vars:     Size  Location     Type
		None
 Return value:  Size  Location     Type
		None               void
 Registers used:
		wreg, fsr2l, fsr2h, status,2, cstack
 Tracked objects:
		On entry : 
		On exit  : 
		Unchanged: 
 Data sizes:     COMRAM   BANK0   BANK1   BANK2   BANK3   BANK4   BANK5   BANK6   BANK7   BANK8   BANK9  BANK10  BANK11  BANK12  BANK13  BANK14  BANK15
      Params:         0       4       0       0       0       0       0       0       0       0       0       0       0       0       0       0       0
      Locals:         0       0       0       0       0       0       0       0       0       0       0       0       0       0       0       0       0
      Temps:          0       0       0       0       0       0       0       0       0       0       0       0       0       0       0       0       0
      Totals:         0       4       0       0       0       0       0       0       0       0       0       0       0       0       0       0       0
Total ram usage:        4 bytes
 Hardware stack levels used:    1
 Hardware stack levels required when called:    9
 This function calls:
		_Beep
 This function is called by:
		_ProcessDoorSwitchIsPressed
 This function uses a non-reentrant model


 *************** function _isOpenDoorFlag *****************
 Defined at:
		line 389 in file "../src/NDC.c"
 Parameters:    Size  Location     Type
		None
 Auto vars:     Size  Location     Type
		None
 Return value:  Size  Location     Type
                  1    wreg      unsigned char 
 Registers used:
		wreg, status,2
 Tracked objects:
		On entry : 
		On exit  : 
		Unchanged: 
 Data sizes:     COMRAM   BANK0   BANK1   BANK2   BANK3   BANK4   BANK5   BANK6   BANK7   BANK8   BANK9  BANK10  BANK11  BANK12  BANK13  BANK14  BANK15
      Params:         0       0       0       0       0       0       0       0       0       0       0       0       0       0       0       0       0
      Locals:         0       0       0       0       0       0       0       0       0       0       0       0       0       0       0       0       0
      Temps:          0       0       0       0       0       0       0       0       0       0       0       0       0       0       0       0       0
      Totals:         0       0       0       0       0       0       0       0       0       0       0       0       0       0       0       0       0
Total ram usage:        0 bytes
 Hardware stack levels used:    1
 Hardware stack levels required when called:    6
 This function calls:
		Nothing
 This function is called by:
		_ProcessDoorSwitchIsPressed
 This function uses a non-reentrant model


 *************** function _SendDoorSwitchPressedEvent *****************
 Defined at:
		line 457 in file "../src/NDC.c"
 Parameters:    Size  Location     Type
		None
 Auto vars:     Size  Location     Type
		None
 Return value:  Size  Location     Type
		None               void
 Registers used:
		wreg, fsr1l, fsr1h, fsr2l, fsr2h, status,2, status,0, tblptrl, tblptrh, tblptru, prodl, prodh, cstack
 Tracked objects:
		On entry : 
		On exit  : 
		Unchanged: 
 Data sizes:     COMRAM   BANK0   BANK1   BANK2   BANK3   BANK4   BANK5   BANK6   BANK7   BANK8   BANK9  BANK10  BANK11  BANK12  BANK13  BANK14  BANK15
      Params:         0       0       0       0       0       0       0       0       0       0       0       0       0       0       0       0       0
      Locals:         0       0       0       0       0       0       0       0       0       0       0       0       0       0       0       0       0
      Temps:          0       0       0       0       0       0       0       0       0       0       0       0       0       0       0       0       0
      Totals:         0       0       0       0       0       0       0       0       0       0       0       0       0       0       0       0       0
Total ram usage:        0 bytes
 Hardware stack levels used:    1
 Hardware stack levels required when called:   15
 This function calls:
		_SendUDPMessage
 This function is called by:
		_ProcessDoorSwitchIsPressed
 This function uses a non-reentrant model


 *************** function _NDCGetRelayActiveTime *****************
 Defined at:
		line 118 in file "../src/NDC.c"
 Parameters:    Size  Location     Type
		None
 Auto vars:     Size  Location     Type
		None
 Return value:  Size  Location     Type
                  2   27[COMRAM] int 
 Registers used:
		None
 Tracked objects:
		On entry : 
		On exit  : 
		Unchanged: 
 Data sizes:     COMRAM   BANK0   BANK1   BANK2   BANK3   BANK4   BANK5   BANK6   BANK7   BANK8   BANK9  BANK10  BANK11  BANK12  BANK13  BANK14  BANK15
      Params:         2       0       0       0       0       0       0       0       0       0       0       0       0       0       0       0       0
      Locals:         0       0       0       0       0       0       0       0       0       0       0       0       0       0       0       0       0
      Temps:          0       0       0       0       0       0       0       0       0       0       0       0       0       0       0       0       0
      Totals:         2       0       0       0       0       0       0       0       0       0       0       0       0       0       0       0       0
Total ram usage:        2 bytes
 Hardware stack levels used:    1
 Hardware stack levels required when called:    6
 This function calls:
		Nothing
 This function is called by:
		_ProcessDoorSwitchIsPressed
 This function uses a non-reentrant model


 *************** function _IsDoorSwitchPressed *****************
 Defined at:
		line 101 in file "../src/DoorSwitch.c"
 Parameters:    Size  Location     Type
		None
 Auto vars:     Size  Location     Type
		None
 Return value:  Size  Location     Type
                  1    wreg      unsigned char 
 Registers used:
		wreg, status,2
 Tracked objects:
		On entry : 
		On exit  : 
		Unchanged: 
 Data sizes:     COMRAM   BANK0   BANK1   BANK2   BANK3   BANK4   BANK5   BANK6   BANK7   BANK8   BANK9  BANK10  BANK11  BANK12  BANK13  BANK14  BANK15
      Params:         0       0       0       0       0       0       0       0       0       0       0       0       0       0       0       0       0
      Locals:         0       0       0       0       0       0       0       0       0       0       0       0       0       0       0       0       0
      Temps:          0       0       0       0       0       0       0       0       0       0       0       0       0       0       0       0       0
      Totals:         0       0       0       0       0       0       0       0       0       0       0       0       0       0       0       0       0
Total ram usage:        0 bytes
 Hardware stack levels used:    1
 Hardware stack levels required when called:    6
 This function calls:
		Nothing
 This function is called by:
		_ProcessStateDoorSwitchIdle
		_ProcessStateDoorSwitchPressed
		_ProcessStateDoorSwitchPressedTooLong
 This function uses a non-reentrant model


 *************** function _ProcessDoorIndicator *****************
 Defined at:
		line 57 in file "../src/DoorIndicator.c"
 Parameters:    Size  Location     Type
		None
 Auto vars:     Size  Location     Type
		None
 Return value:  Size  Location     Type
		None               void
 Registers used:
		wreg, fsr1l, fsr1h, fsr2l, fsr2h, status,2, status,0, tblptrl, tblptrh, tblptru, prodl, prodh, cstack
 Tracked objects:
		On entry : 
		On exit  : 
		Unchanged: 
 Data sizes:     COMRAM   BANK0   BANK1   BANK2   BANK3   BANK4   BANK5   BANK6   BANK7   BANK8   BANK9  BANK10  BANK11  BANK12  BANK13  BANK14  BANK15
      Params:         0       0       0       0       0       0       0       0       0       0       0       0       0       0       0       0       0
      Locals:         0       0       0       0       0       0       0       0       0       0       0       0       0       0       0       0       0
      Temps:          0       0       0       0       0       0       0       0       0       0       0       0       0       0       0       0       0
      Totals:         0       0       0       0       0       0       0       0       0       0       0       0       0       0       0       0       0
Total ram usage:        0 bytes
 Hardware stack levels used:    1
 Hardware stack levels required when called:   18
 This function calls:
		_ProcessStateDoorIndicatorClosed
		_ProcessStateDoorIndicatorOpen
		_ProcessStateDoorIndicatorOpenTooLong
 This function is called by:
		_main
 This function uses a non-reentrant model


 *************** function _ProcessStateDoorIndicatorOpenTooLong *****************
 Defined at:
		line 149 in file "../src/DoorIndicator.c"
 Parameters:    Size  Location     Type
		None
 Auto vars:     Size  Location     Type
		None
 Return value:  Size  Location     Type
		None               void
 Registers used:
		wreg, fsr1l, fsr1h, fsr2l, fsr2h, status,2, status,0, tblptrl, tblptrh, tblptru, prodl, prodh, cstack
 Tracked objects:
		On entry : 
		On exit  : 
		Unchanged: 
 Data sizes:     COMRAM   BANK0   BANK1   BANK2   BANK3   BANK4   BANK5   BANK6   BANK7   BANK8   BANK9  BANK10  BANK11  BANK12  BANK13  BANK14  BANK15
      Params:         0       0       0       0       0       0       0       0       0       0       0       0       0       0       0       0       0
      Locals:         0       0       0       0       0       0       0       0       0       0       0       0       0       0       0       0       0
      Temps:          0       0       0       0       0       0       0       0       0       0       0       0       0       0       0       0       0
      Totals:         0       0       0       0       0       0       0       0       0       0       0       0       0       0       0       0       0
Total ram usage:        0 bytes
 Hardware stack levels used:    1
 Hardware stack levels required when called:   16
 This function calls:
		_Beep
		_SendDoorClosedEvent
		_isDoorIndicatorOpen
 This function is called by:
		_ProcessDoorIndicator
 This function uses a non-reentrant model


 *************** function _ProcessStateDoorIndicatorOpen *****************
 Defined at:
		line 131 in file "../src/DoorIndicator.c"
 Parameters:    Size  Location     Type
		None
 Auto vars:     Size  Location     Type
		None
 Return value:  Size  Location     Type
		None               void
 Registers used:
		wreg, fsr1l, fsr1h, fsr2l, fsr2h, status,2, status,0, tblptrl, tblptrh, tblptru, prodl, prodh, cstack
 Tracked objects:
		On entry : 
		On exit  : 
		Unchanged: 
 Data sizes:     COMRAM   BANK0   BANK1   BANK2   BANK3   BANK4   BANK5   BANK6   BANK7   BANK8   BANK9  BANK10  BANK11  BANK12  BANK13  BANK14  BANK15
      Params:         0       0       0       0       0       0       0       0       0       0       0       0       0       0       0       0       0
      Locals:         0       0       0       0       0       0       0       0       0       0       0       0       0       0       0       0       0
      Temps:          0       0       0       0       0       0       0       0       0       0       0       0       0       0       0       0       0
      Totals:         0       0       0       0       0       0       0       0       0       0       0       0       0       0       0       0       0
Total ram usage:        0 bytes
 Hardware stack levels used:    1
 Hardware stack levels required when called:   16
 This function calls:
		_SendDoorClosedEvent
		_SendDoorOpenTooLongEvent
		_isDoorIndicatorOpen
 This function is called by:
		_ProcessDoorIndicator
 This function uses a non-reentrant model


 *************** function _SendDoorOpenTooLongEvent *****************
 Defined at:
		line 516 in file "../src/NDC.c"
 Parameters:    Size  Location     Type
		None
 Auto vars:     Size  Location     Type
		None
 Return value:  Size  Location     Type
		None               void
 Registers used:
		wreg, fsr1l, fsr1h, fsr2l, fsr2h, status,2, status,0, tblptrl, tblptrh, tblptru, prodl, prodh, cstack
 Tracked objects:
		On entry : 
		On exit  : 
		Unchanged: 
 Data sizes:     COMRAM   BANK0   BANK1   BANK2   BANK3   BANK4   BANK5   BANK6   BANK7   BANK8   BANK9  BANK10  BANK11  BANK12  BANK13  BANK14  BANK15
      Params:         0       0       0       0       0       0       0       0       0       0       0       0       0       0       0       0       0
      Locals:         0       0       0       0       0       0       0       0       0       0       0       0       0       0       0       0       0
      Temps:          0       0       0       0       0       0       0       0       0       0       0       0       0       0       0       0       0
      Totals:         0       0       0       0       0       0       0       0       0       0       0       0       0       0       0       0       0
Total ram usage:        0 bytes
 Hardware stack levels used:    1
 Hardware stack levels required when called:   15
 This function calls:
		_SendUDPMessage
 This function is called by:
		_ProcessStateDoorIndicatorOpen
 This function uses a non-reentrant model


 *************** function _SendDoorClosedEvent *****************
 Defined at:
		line 501 in file "../src/NDC.c"
 Parameters:    Size  Location     Type
		None
 Auto vars:     Size  Location     Type
		None
 Return value:  Size  Location     Type
		None               void
 Registers used:
		wreg, fsr1l, fsr1h, fsr2l, fsr2h, status,2, status,0, tblptrl, tblptrh, tblptru, prodl, prodh, cstack
 Tracked objects:
		On entry : 
		On exit  : 
		Unchanged: 
 Data sizes:     COMRAM   BANK0   BANK1   BANK2   BANK3   BANK4   BANK5   BANK6   BANK7   BANK8   BANK9  BANK10  BANK11  BANK12  BANK13  BANK14  BANK15
      Params:         0       0       0       0       0       0       0       0       0       0       0       0       0       0       0       0       0
      Locals:         0       0       0       0       0       0       0       0       0       0       0       0       0       0       0       0       0
      Temps:          0       0       0       0       0       0       0       0       0       0       0       0       0       0       0       0       0
      Totals:         0       0       0       0       0       0       0       0       0       0       0       0       0       0       0       0       0
Total ram usage:        0 bytes
 Hardware stack levels used:    1
 Hardware stack levels required when called:   15
 This function calls:
		_SendUDPMessage
 This function is called by:
		_ProcessStateDoorIndicatorOpen
		_ProcessStateDoorIndicatorOpenTooLong
 This function uses a non-reentrant model


 *************** function _ProcessStateDoorIndicatorClosed *****************
 Defined at:
		line 73 in file "../src/DoorIndicator.c"
 Parameters:    Size  Location     Type
		None
 Auto vars:     Size  Location     Type
		None
 Return value:  Size  Location     Type
		None               void
 Registers used:
		wreg, fsr1l, fsr1h, fsr2l, fsr2h, status,2, status,0, tblptrl, tblptrh, tblptru, prodl, prodh, cstack
 Tracked objects:
		On entry : 
		On exit  : 
		Unchanged: 
 Data sizes:     COMRAM   BANK0   BANK1   BANK2   BANK3   BANK4   BANK5   BANK6   BANK7   BANK8   BANK9  BANK10  BANK11  BANK12  BANK13  BANK14  BANK15
      Params:         0       0       0       0       0       0       0       0       0       0       0       0       0       0       0       0       0
      Locals:         0       0       0       0       0       0       0       0       0       0       0       0       0       0       0       0       0
      Temps:          0       0       0       0       0       0       0       0       0       0       0       0       0       0       0       0       0
      Totals:         0       0       0       0       0       0       0       0       0       0       0       0       0       0       0       0       0
Total ram usage:        0 bytes
 Hardware stack levels used:    1
 Hardware stack levels required when called:   17
 This function calls:
		_ProcessDoorIndicatorIsClosed
		_ProcessDoorIndicatorIsOpen
		_isDoorIndicatorOpen
 This function is called by:
		_ProcessDoorIndicator
 This function uses a non-reentrant model


 *************** function _isDoorIndicatorOpen *****************
 Defined at:
		line 82 in file "../src/DoorIndicator.c"
 Parameters:    Size  Location     Type
		None
 Auto vars:     Size  Location     Type
		None
 Return value:  Size  Location     Type
                  1    wreg      unsigned char 
 Registers used:
		wreg, status,2, status,0
 Tracked objects:
		On entry : 
		On exit  : 
		Unchanged: 
 Data sizes:     COMRAM   BANK0   BANK1   BANK2   BANK3   BANK4   BANK5   BANK6   BANK7   BANK8   BANK9  BANK10  BANK11  BANK12  BANK13  BANK14  BANK15
      Params:         0       0       0       0       0       0       0       0       0       0       0       0       0       0       0       0       0
      Locals:         0       0       0       0       0       0       0       0       0       0       0       0       0       0       0       0       0
      Temps:          0       0       0       0       0       0       0       0       0       0       0       0       0       0       0       0       0
      Totals:         0       0       0       0       0       0       0       0       0       0       0       0       0       0       0       0       0
Total ram usage:        0 bytes
 Hardware stack levels used:    1
 Hardware stack levels required when called:    6
 This function calls:
		Nothing
 This function is called by:
		_ProcessStateDoorIndicatorClosed
		_ProcessStateDoorIndicatorOpen
		_ProcessStateDoorIndicatorOpenTooLong
 This function uses a non-reentrant model


 *************** function _ProcessDoorIndicatorIsOpen *****************
 Defined at:
		line 114 in file "../src/DoorIndicator.c"
 Parameters:    Size  Location     Type
		None
 Auto vars:     Size  Location     Type
		None
 Return value:  Size  Location     Type
		None               void
 Registers used:
		wreg, fsr1l, fsr1h, fsr2l, fsr2h, status,2, status,0, tblptrl, tblptrh, tblptru, prodl, prodh, cstack
 Tracked objects:
		On entry : 
		On exit  : 
		Unchanged: 
 Data sizes:     COMRAM   BANK0   BANK1   BANK2   BANK3   BANK4   BANK5   BANK6   BANK7   BANK8   BANK9  BANK10  BANK11  BANK12  BANK13  BANK14  BANK15
      Params:         0       0       0       0       0       0       0       0       0       0       0       0       0       0       0       0       0
      Locals:         0       0       0       0       0       0       0       0       0       0       0       0       0       0       0       0       0
      Temps:          0       0       0       0       0       0       0       0       0       0       0       0       0       0       0       0       0
      Totals:         0       0       0       0       0       0       0       0       0       0       0       0       0       0       0       0       0
Total ram usage:        0 bytes
 Hardware stack levels used:    1
 Hardware stack levels required when called:   16
 This function calls:
		_SendDoorOpenEvent
 This function is called by:
		_ProcessStateDoorIndicatorClosed
 This function uses a non-reentrant model


 *************** function _SendDoorOpenEvent *****************
 Defined at:
		line 486 in file "../src/NDC.c"
 Parameters:    Size  Location     Type
		None
 Auto vars:     Size  Location     Type
		None
 Return value:  Size  Location     Type
		None               void
 Registers used:
		wreg, fsr1l, fsr1h, fsr2l, fsr2h, status,2, status,0, tblptrl, tblptrh, tblptru, prodl, prodh, cstack
 Tracked objects:
		On entry : 
		On exit  : 
		Unchanged: 
 Data sizes:     COMRAM   BANK0   BANK1   BANK2   BANK3   BANK4   BANK5   BANK6   BANK7   BANK8   BANK9  BANK10  BANK11  BANK12  BANK13  BANK14  BANK15
      Params:         0       0       0       0       0       0       0       0       0       0       0       0       0       0       0       0       0
      Locals:         0       0       0       0       0       0       0       0       0       0       0       0       0       0       0       0       0
      Temps:          0       0       0       0       0       0       0       0       0       0       0       0       0       0       0       0       0
      Totals:         0       0       0       0       0       0       0       0       0       0       0       0       0       0       0       0       0
Total ram usage:        0 bytes
 Hardware stack levels used:    1
 Hardware stack levels required when called:   15
 This function calls:
		_SendUDPMessage
 This function is called by:
		_ProcessDoorIndicatorIsOpen
 This function uses a non-reentrant model


 *************** function _ProcessDoorIndicatorIsClosed *****************
 Defined at:
		line 126 in file "../src/DoorIndicator.c"
 Parameters:    Size  Location     Type
		None
 Auto vars:     Size  Location     Type
		None
 Return value:  Size  Location     Type
		None               void
 Registers used:
		None
 Tracked objects:
		On entry : 
		On exit  : 
		Unchanged: 
 Data sizes:     COMRAM   BANK0   BANK1   BANK2   BANK3   BANK4   BANK5   BANK6   BANK7   BANK8   BANK9  BANK10  BANK11  BANK12  BANK13  BANK14  BANK15
      Params:         0       0       0       0       0       0       0       0       0       0       0       0       0       0       0       0       0
      Locals:         0       0       0       0       0       0       0       0       0       0       0       0       0       0       0       0       0
      Temps:          0       0       0       0       0       0       0       0       0       0       0       0       0       0       0       0       0
      Totals:         0       0       0       0       0       0       0       0       0       0       0       0       0       0       0       0       0
Total ram usage:        0 bytes
 Hardware stack levels used:    1
 Hardware stack levels required when called:    6
 This function calls:
		Nothing
 This function is called by:
		_ProcessStateDoorIndicatorClosed
 This function uses a non-reentrant model


 *************** function _NDCResetState *****************
 Defined at:
		line 173 in file "../src/NDC.c"
 Parameters:    Size  Location     Type
		None
 Auto vars:     Size  Location     Type
		None
 Return value:  Size  Location     Type
		None               void
 Registers used:
		wreg, fsr2l, fsr2h, status,2, status,0, prodl, prodh, cstack
 Tracked objects:
		On entry : 
		On exit  : 
		Unchanged: 
 Data sizes:     COMRAM   BANK0   BANK1   BANK2   BANK3   BANK4   BANK5   BANK6   BANK7   BANK8   BANK9  BANK10  BANK11  BANK12  BANK13  BANK14  BANK15
      Params:         0       0       0       0       0       0       0       0       0       0       0       0       0       0       0       0       0
      Locals:         0       0       0       0       0       0       0       0       0       0       0       0       0       0       0       0       0
      Temps:          0       0       0       0       0       0       0       0       0       0       0       0       0       0       0       0       0
      Totals:         0       0       0       0       0       0       0       0       0       0       0       0       0       0       0       0       0
Total ram usage:        0 bytes
 Hardware stack levels used:    1
 Hardware stack levels required when called:    8
 This function calls:
		_InitStartState
		_TickGet
		_UDPClose
 This function is called by:
		_main
 This function uses a non-reentrant model


 *************** function _NDCInitData *****************
 Defined at:
		line 102 in file "../src/NDC.c"
 Parameters:    Size  Location     Type
		None
 Auto vars:     Size  Location     Type
		None
 Return value:  Size  Location     Type
		None               void
 Registers used:
		wreg, status,2
 Tracked objects:
		On entry : 
		On exit  : 
		Unchanged: 
 Data sizes:     COMRAM   BANK0   BANK1   BANK2   BANK3   BANK4   BANK5   BANK6   BANK7   BANK8   BANK9  BANK10  BANK11  BANK12  BANK13  BANK14  BANK15
      Params:         0       0       0       0       0       0       0       0       0       0       0       0       0       0       0       0       0
      Locals:         0       0       0       0       0       0       0       0       0       0       0       0       0       0       0       0       0
      Temps:          0       0       0       0       0       0       0       0       0       0       0       0       0       0       0       0       0
      Totals:         0       0       0       0       0       0       0       0       0       0       0       0       0       0       0       0       0
Total ram usage:        0 bytes
 Hardware stack levels used:    1
 Hardware stack levels required when called:    6
 This function calls:
		Nothing
 This function is called by:
		_main
 This function uses a non-reentrant model


 *************** function _NDCFSM *****************
 Defined at:
		line 888 in file "../src/NDC.c"
 Parameters:    Size  Location     Type
		None
 Auto vars:     Size  Location     Type
		None
 Return value:  Size  Location     Type
		None               void
 Registers used:
		wreg, fsr1l, fsr1h, fsr2l, fsr2h, status,2, status,0, tblptrl, tblptrh, tblptru, prodl, prodh, cstack
 Tracked objects:
		On entry : 
		On exit  : 
		Unchanged: 
 Data sizes:     COMRAM   BANK0   BANK1   BANK2   BANK3   BANK4   BANK5   BANK6   BANK7   BANK8   BANK9  BANK10  BANK11  BANK12  BANK13  BANK14  BANK15
      Params:         0       0       0       0       0       0       0       0       0       0       0       0       0       0       0       0       0
      Locals:         0       0       0       0       0       0       0       0       0       0       0       0       0       0       0       0       0
      Temps:          0       0       0       0       0       0       0       0       0       0       0       0       0       0       0       0       0
      Totals:         0       0       0       0       0       0       0       0       0       0       0       0       0       0       0       0       0
Total ram usage:        0 bytes
 Hardware stack levels used:    1
 Hardware stack levels required when called:   17
 This function calls:
		_CheckConfigDataWaitTimer
		_CheckConnectionResponseWaitTimer
		_CheckDoorTimer
		_CheckFlashingLEDTimer
		_CheckHeartBeatTimer
		_CheckKeypad
		_CheckWaitForCodeTimer
		_HandleConfigData
		_HandleConnectionResponse
		_HandleReceivedBytes
		_InitStartState
		_KeyPressedResetIdleTimer
		_OpenUDPsocket
		_SendConnectionRequest
		_SendDeviceReadySignal
		_SendDoorTimerExpiredEvent
		_SendHeartBeat
		_UDPIsGetReady
		_UDPIsPutReady
 This function is called by:
		_main
 This function uses a non-reentrant model


 *************** function _SendHeartBeat *****************
 Defined at:
		line 637 in file "../src/NDC.c"
 Parameters:    Size  Location     Type
		None
 Auto vars:     Size  Location     Type
		None
 Return value:  Size  Location     Type
		None               void
 Registers used:
		wreg, fsr1l, fsr1h, fsr2l, fsr2h, status,2, status,0, tblptrl, tblptrh, tblptru, prodl, prodh, cstack
 Tracked objects:
		On entry : 
		On exit  : 
		Unchanged: 
 Data sizes:     COMRAM   BANK0   BANK1   BANK2   BANK3   BANK4   BANK5   BANK6   BANK7   BANK8   BANK9  BANK10  BANK11  BANK12  BANK13  BANK14  BANK15
      Params:         0       0       0       0       0       0       0       0       0       0       0       0       0       0       0       0       0
      Locals:         0       0       0       0       0       0       0       0       0       0       0       0       0       0       0       0       0
      Temps:          0       0       4       0       0       0       0       0       0       0       0       0       0       0       0       0       0
      Totals:         0       0       4       0       0       0       0       0       0       0       0       0       0       0       0       0       0
Total ram usage:        4 bytes
 Hardware stack levels used:    1
 Hardware stack levels required when called:   16
 This function calls:
		_CheckIfFirstTimeConnection
		_SendFirstConnectionMadeEvent
		_SendUDPMessage
		_TickGet
 This function is called by:
		_NDCFSM
 This function uses a non-reentrant model


 *************** function _SendFirstConnectionMadeEvent *****************
 Defined at:
		line 472 in file "../src/NDC.c"
 Parameters:    Size  Location     Type
		None
 Auto vars:     Size  Location     Type
		None
 Return value:  Size  Location     Type
		None               void
 Registers used:
		wreg, fsr1l, fsr1h, fsr2l, fsr2h, status,2, status,0, tblptrl, tblptrh, tblptru, prodl, prodh, cstack
 Tracked objects:
		On entry : 
		On exit  : 
		Unchanged: 
 Data sizes:     COMRAM   BANK0   BANK1   BANK2   BANK3   BANK4   BANK5   BANK6   BANK7   BANK8   BANK9  BANK10  BANK11  BANK12  BANK13  BANK14  BANK15
      Params:         0       0       0       0       0       0       0       0       0       0       0       0       0       0       0       0       0
      Locals:         0       0       0       0       0       0       0       0       0       0       0       0       0       0       0       0       0
      Temps:          0       0       0       0       0       0       0       0       0       0       0       0       0       0       0       0       0
      Totals:         0       0       0       0       0       0       0       0       0       0       0       0       0       0       0       0       0
Total ram usage:        0 bytes
 Hardware stack levels used:    1
 Hardware stack levels required when called:   15
 This function calls:
		_SendUDPMessage
 This function is called by:
		_SendHeartBeat
 This function uses a non-reentrant model


 *************** function _CheckIfFirstTimeConnection *****************
 Defined at:
		line 241 in file "../src/NDC.c"
 Parameters:    Size  Location     Type
		None
 Auto vars:     Size  Location     Type
		None
 Return value:  Size  Location     Type
                  1    wreg      unsigned char 
 Registers used:
		wreg, status,2, status,0
 Tracked objects:
		On entry : 
		On exit  : 
		Unchanged: 
 Data sizes:     COMRAM   BANK0   BANK1   BANK2   BANK3   BANK4   BANK5   BANK6   BANK7   BANK8   BANK9  BANK10  BANK11  BANK12  BANK13  BANK14  BANK15
      Params:         0       0       0       0       0       0       0       0       0       0       0       0       0       0       0       0       0
      Locals:         0       0       0       0       0       0       0       0       0       0       0       0       0       0       0       0       0
      Temps:          0       0       0       0       0       0       0       0       0       0       0       0       0       0       0       0       0
      Totals:         0       0       0       0       0       0       0       0       0       0       0       0       0       0       0       0       0
Total ram usage:        0 bytes
 Hardware stack levels used:    1
 Hardware stack levels required when called:    6
 This function calls:
		Nothing
 This function is called by:
		_SendHeartBeat
 This function uses a non-reentrant model


 *************** function _SendDeviceReadySignal *****************
 Defined at:
		line 574 in file "../src/NDC.c"
 Parameters:    Size  Location     Type
		None
 Auto vars:     Size  Location     Type
		None
 Return value:  Size  Location     Type
		None               void
 Registers used:
		wreg, fsr1l, fsr1h, fsr2l, fsr2h, status,2, status,0, tblptrl, tblptrh, tblptru, prodl, prodh, cstack
 Tracked objects:
		On entry : 
		On exit  : 
		Unchanged: 
 Data sizes:     COMRAM   BANK0   BANK1   BANK2   BANK3   BANK4   BANK5   BANK6   BANK7   BANK8   BANK9  BANK10  BANK11  BANK12  BANK13  BANK14  BANK15
      Params:         0       0       0       0       0       0       0       0       0       0       0       0       0       0       0       0       0
      Locals:         0       0       0       0       0       0       0       0       0       0       0       0       0       0       0       0       0
      Temps:          0       0       0       0       0       0       0       0       0       0       0       0       0       0       0       0       0
      Totals:         0       0       0       0       0       0       0       0       0       0       0       0       0       0       0       0       0
Total ram usage:        0 bytes
 Hardware stack levels used:    1
 Hardware stack levels required when called:   15
 This function calls:
		_SendUDPMessage
 This function is called by:
		_NDCFSM
 This function uses a non-reentrant model


 *************** function _SendConnectionRequest *****************
 Defined at:
		line 587 in file "../src/NDC.c"
 Parameters:    Size  Location     Type
		None
 Auto vars:     Size  Location     Type
		None
 Return value:  Size  Location     Type
		None               void
 Registers used:
		wreg, fsr1l, fsr1h, fsr2l, fsr2h, status,2, status,0, tblptrl, tblptrh, tblptru, prodl, prodh, cstack
 Tracked objects:
		On entry : 
		On exit  : 
		Unchanged: 
 Data sizes:     COMRAM   BANK0   BANK1   BANK2   BANK3   BANK4   BANK5   BANK6   BANK7   BANK8   BANK9  BANK10  BANK11  BANK12  BANK13  BANK14  BANK15
      Params:         0       0       0       0       0       0       0       0       0       0       0       0       0       0       0       0       0
      Locals:         0       0       0       0       0       0       0       0       0       0       0       0       0       0       0       0       0
      Temps:          0       0       4       0       0       0       0       0       0       0       0       0       0       0       0       0       0
      Totals:         0       0       4       0       0       0       0       0       0       0       0       0       0       0       0       0       0
Total ram usage:        4 bytes
 Hardware stack levels used:    1
 Hardware stack levels required when called:   15
 This function calls:
		_SendUDPMessage
		_TickGet
 This function is called by:
		_NDCFSM
 This function uses a non-reentrant model


 *************** function _OpenUDPsocket *****************
 Defined at:
		line 146 in file "../src/NDC.c"
 Parameters:    Size  Location     Type
		None
 Auto vars:     Size  Location     Type
		None
 Return value:  Size  Location     Type
		None               void
 Registers used:
		wreg, fsr1l, fsr1h, fsr2l, fsr2h, status,2, status,0, tblptrl, tblptrh, tblptru, cstack
 Tracked objects:
		On entry : 
		On exit  : 
		Unchanged: 
 Data sizes:     COMRAM   BANK0   BANK1   BANK2   BANK3   BANK4   BANK5   BANK6   BANK7   BANK8   BANK9  BANK10  BANK11  BANK12  BANK13  BANK14  BANK15
      Params:         0       0       0       0       0       0       0       0       0       0       0       0       0       0       0       0       0
      Locals:         0       0       0       0       0       0       0       0       0       0       0       0       0       0       0       0       0
      Temps:          0       4       0       0       0       0       0       0       0       0       0       0       0       0       0       0       0
      Totals:         0       4       0       0       0       0       0       0       0       0       0       0       0       0       0       0       0
Total ram usage:        4 bytes
 Hardware stack levels used:    1
 Hardware stack levels required when called:    8
 This function calls:
		_TickGet
		_UDPOpenEx
		_memset
 This function is called by:
		_NDCFSM
 This function uses a non-reentrant model


 *************** function _KeyPressedResetIdleTimer *****************
 Defined at:
		line 162 in file "../src/NDC.c"
 Parameters:    Size  Location     Type
		None
 Auto vars:     Size  Location     Type
		None
 Return value:  Size  Location     Type
		None               void
 Registers used:
		wreg, fsr2l, fsr2h, status,2, status,0, cstack
 Tracked objects:
		On entry : 
		On exit  : 
		Unchanged: 
 Data sizes:     COMRAM   BANK0   BANK1   BANK2   BANK3   BANK4   BANK5   BANK6   BANK7   BANK8   BANK9  BANK10  BANK11  BANK12  BANK13  BANK14  BANK15
      Params:         0       0       0       0       0       0       0       0       0       0       0       0       0       0       0       0       0
      Locals:         0       0       0       0       0       0       0       0       0       0       0       0       0       0       0       0       0
      Temps:          4       0       0       0       0       0       0       0       0       0       0       0       0       0       0       0       0
      Totals:         4       0       0       0       0       0       0       0       0       0       0       0       0       0       0       0       0
Total ram usage:        4 bytes
 Hardware stack levels used:    1
 Hardware stack levels required when called:    8
 This function calls:
		_TickGet
 This function is called by:
		_NDCFSM
 This function uses a non-reentrant model


 *************** function _InitStartState *****************
 Defined at:
		line 129 in file "../src/NDC.c"
 Parameters:    Size  Location     Type
		None
 Auto vars:     Size  Location     Type
		None
 Return value:  Size  Location     Type
		None               void
 Registers used:
		None
 Tracked objects:
		On entry : 
		On exit  : 
		Unchanged: 
 Data sizes:     COMRAM   BANK0   BANK1   BANK2   BANK3   BANK4   BANK5   BANK6   BANK7   BANK8   BANK9  BANK10  BANK11  BANK12  BANK13  BANK14  BANK15
      Params:         0       0       0       0       0       0       0       0       0       0       0       0       0       0       0       0       0
      Locals:         0       0       0       0       0       0       0       0       0       0       0       0       0       0       0       0       0
      Temps:          0       0       0       0       0       0       0       0       0       0       0       0       0       0       0       0       0
      Totals:         0       0       0       0       0       0       0       0       0       0       0       0       0       0       0       0       0
Total ram usage:        0 bytes
 Hardware stack levels used:    1
 Hardware stack levels required when called:    6
 This function calls:
		Nothing
 This function is called by:
		_NDCResetState
		_NDCFSM
 This function uses a non-reentrant model


 *************** function _HandleReceivedBytes *****************
 Defined at:
		line 753 in file "../src/NDC.c"
 Parameters:    Size  Location     Type
		None
 Auto vars:     Size  Location     Type
		None
 Return value:  Size  Location     Type
		None               void
 Registers used:
		wreg, fsr1l, fsr1h, fsr2l, fsr2h, status,2, status,0, tblptrl, tblptrh, tblptru, prodl, prodh, cstack
 Tracked objects:
		On entry : 
		On exit  : 
		Unchanged: 
 Data sizes:     COMRAM   BANK0   BANK1   BANK2   BANK3   BANK4   BANK5   BANK6   BANK7   BANK8   BANK9  BANK10  BANK11  BANK12  BANK13  BANK14  BANK15
      Params:         0       0       0       0       0       0       0       0       0       0       0       0       0       0       0       0       0
      Locals:         0       0       0       0       0       0       0       0       0       0       0       0       0       0       0       0       0
      Temps:          0       0       4       0       0       0       0       0       0       0       0       0       0       0       0       0       0
      Totals:         0       0       4       0       0       0       0       0       0       0       0       0       0       0       0       0       0
Total ram usage:        4 bytes
 Hardware stack levels used:    1
 Hardware stack levels required when called:   16
 This function calls:
		_Beep
		_HandleConfigData
		_SendDoorStatus
		_SendDoorTimerExpiredEvent
		_SendVersionString
		_TickGet
		_UDPClose
		_UDPGetArray
 This function is called by:
		_NDCFSM
 This function uses a non-reentrant model


 *************** function _SendVersionString *****************
 Defined at:
		line 609 in file "../src/NDC.c"
 Parameters:    Size  Location     Type
		None
 Auto vars:     Size  Location     Type
  index           1    6[BANK1 ] unsigned char 
  textLength      1    5[BANK1 ] unsigned char 
 Return value:  Size  Location     Type
		None               void
 Registers used:
		wreg, fsr1l, fsr1h, fsr2l, fsr2h, status,2, status,0, tblptrl, tblptrh, tblptru, prodl, prodh, cstack
 Tracked objects:
		On entry : 
		On exit  : 
		Unchanged: 
 Data sizes:     COMRAM   BANK0   BANK1   BANK2   BANK3   BANK4   BANK5   BANK6   BANK7   BANK8   BANK9  BANK10  BANK11  BANK12  BANK13  BANK14  BANK15
      Params:         0       0       0       0       0       0       0       0       0       0       0       0       0       0       0       0       0
      Locals:         0       0       2       0       0       0       0       0       0       0       0       0       0       0       0       0       0
      Temps:          0       1       0       0       0       0       0       0       0       0       0       0       0       0       0       0       0
      Totals:         0       1       2       0       0       0       0       0       0       0       0       0       0       0       0       0       0
Total ram usage:        3 bytes
 Hardware stack levels used:    1
 Hardware stack levels required when called:   15
 This function calls:
		_SendUDPMessage
 This function is called by:
		_HandleReceivedBytes
 This function uses a non-reentrant model


 *************** function _SendDoorTimerExpiredEvent *****************
 Defined at:
		line 546 in file "../src/NDC.c"
 Parameters:    Size  Location     Type
		None
 Auto vars:     Size  Location     Type
		None
 Return value:  Size  Location     Type
		None               void
 Registers used:
		wreg, fsr1l, fsr1h, fsr2l, fsr2h, status,2, status,0, tblptrl, tblptrh, tblptru, prodl, prodh, cstack
 Tracked objects:
		On entry : 
		On exit  : 
		Unchanged: 
 Data sizes:     COMRAM   BANK0   BANK1   BANK2   BANK3   BANK4   BANK5   BANK6   BANK7   BANK8   BANK9  BANK10  BANK11  BANK12  BANK13  BANK14  BANK15
      Params:         0       0       0       0       0       0       0       0       0       0       0       0       0       0       0       0       0
      Locals:         0       0       0       0       0       0       0       0       0       0       0       0       0       0       0       0       0
      Temps:          0       0       0       0       0       0       0       0       0       0       0       0       0       0       0       0       0
      Totals:         0       0       0       0       0       0       0       0       0       0       0       0       0       0       0       0       0
Total ram usage:        0 bytes
 Hardware stack levels used:    1
 Hardware stack levels required when called:   15
 This function calls:
		_SendUDPMessage
 This function is called by:
		_HandleReceivedBytes
		_NDCFSM
 This function uses a non-reentrant model


 *************** function _SendDoorStatus *****************
 Defined at:
		line 430 in file "../src/NDC.c"
 Parameters:    Size  Location     Type
		None
 Auto vars:     Size  Location     Type
		None
 Return value:  Size  Location     Type
		None               void
 Registers used:
		wreg, fsr1l, fsr1h, fsr2l, fsr2h, status,2, status,0, tblptrl, tblptrh, tblptru, prodl, prodh, cstack
 Tracked objects:
		On entry : 
		On exit  : 
		Unchanged: 
 Data sizes:     COMRAM   BANK0   BANK1   BANK2   BANK3   BANK4   BANK5   BANK6   BANK7   BANK8   BANK9  BANK10  BANK11  BANK12  BANK13  BANK14  BANK15
      Params:         0       0       0       0       0       0       0       0       0       0       0       0       0       0       0       0       0
      Locals:         0       0       0       0       0       0       0       0       0       0       0       0       0       0       0       0       0
      Temps:          0       0       0       0       0       0       0       0       0       0       0       0       0       0       0       0       0
      Totals:         0       0       0       0       0       0       0       0       0       0       0       0       0       0       0       0       0
Total ram usage:        0 bytes
 Hardware stack levels used:    1
 Hardware stack levels required when called:   15
 This function calls:
		_DoorIndicatorGetStatus
		_SendUDPMessage
 This function is called by:
		_HandleReceivedBytes
 This function uses a non-reentrant model


 *************** function _DoorIndicatorGetStatus *****************
 Defined at:
		line 192 in file "../src/DoorIndicator.c"
 Parameters:    Size  Location     Type
		None
 Auto vars:     Size  Location     Type
		None
 Return value:  Size  Location     Type
                  1    wreg      unsigned char 
 Registers used:
		wreg, status,2
 Tracked objects:
		On entry : 
		On exit  : 
		Unchanged: 
 Data sizes:     COMRAM   BANK0   BANK1   BANK2   BANK3   BANK4   BANK5   BANK6   BANK7   BANK8   BANK9  BANK10  BANK11  BANK12  BANK13  BANK14  BANK15
      Params:         0       0       0       0       0       0       0       0       0       0       0       0       0       0       0       0       0
      Locals:         0       0       0       0       0       0       0       0       0       0       0       0       0       0       0       0       0
      Temps:          0       0       0       0       0       0       0       0       0       0       0       0       0       0       0       0       0
      Totals:         0       0       0       0       0       0       0       0       0       0       0       0       0       0       0       0       0
Total ram usage:        0 bytes
 Hardware stack levels used:    1
 Hardware stack levels required when called:    6
 This function calls:
		Nothing
 This function is called by:
		_SendDoorStatus
 This function uses a non-reentrant model


 *************** function _HandleConfigData *****************
 Defined at:
		line 680 in file "../src/NDC.c"
 Parameters:    Size  Location     Type
		None
 Auto vars:     Size  Location     Type
  doorRelayAct    4   14[BANK0 ] unsigned long 
  doorSwitchPr    2   12[BANK0 ] int 
  doorOpenTooL    2   10[BANK0 ] int 
  doorSwitchPo    1    9[BANK0 ] unsigned char 
  doorIndicato    1    8[BANK0 ] unsigned char 
 Return value:  Size  Location     Type
                  1    wreg      unsigned char 
 Registers used:
		wreg, fsr2l, fsr2h, status,2, status,0, prodl, prodh, cstack
 Tracked objects:
		On entry : 
		On exit  : 
		Unchanged: 
 Data sizes:     COMRAM   BANK0   BANK1   BANK2   BANK3   BANK4   BANK5   BANK6   BANK7   BANK8   BANK9  BANK10  BANK11  BANK12  BANK13  BANK14  BANK15
      Params:         0       0       0       0       0       0       0       0       0       0       0       0       0       0       0       0       0
      Locals:         0      10       0       0       0       0       0       0       0       0       0       0       0       0       0       0       0
      Temps:          0       4       0       0       0       0       0       0       0       0       0       0       0       0       0       0       0
      Totals:         0      14       0       0       0       0       0       0       0       0       0       0       0       0       0       0       0
Total ram usage:       14 bytes
 Hardware stack levels used:    1
 Hardware stack levels required when called:    8
 This function calls:
		_DoorIndicatorUpdateConfig
		_DoorSwitchUpdateConfig
		_GetWiegandCode
		_TickGet
		_UDPGetArray
 This function is called by:
		_HandleReceivedBytes
		_NDCFSM
 This function uses a non-reentrant model


 *************** function _DoorSwitchUpdateConfig *****************
 Defined at:
		line 156 in file "../src/DoorSwitch.c"
 Parameters:    Size  Location     Type
  configData      2   35[COMRAM] PTR struct _CONFIG
		 -> m_config(8), 
 Auto vars:     Size  Location     Type
		None
 Return value:  Size  Location     Type
		None               void
 Registers used:
		wreg, fsr2l, fsr2h, status,2, status,0, prodl, prodh, cstack
 Tracked objects:
		On entry : 
		On exit  : 
		Unchanged: 
 Data sizes:     COMRAM   BANK0   BANK1   BANK2   BANK3   BANK4   BANK5   BANK6   BANK7   BANK8   BANK9  BANK10  BANK11  BANK12  BANK13  BANK14  BANK15
      Params:         2       0       0       0       0       0       0       0       0       0       0       0       0       0       0       0       0
      Locals:         0       0       0       0       0       0       0       0       0       0       0       0       0       0       0       0       0
      Temps:          0       4       0       0       0       0       0       0       0       0       0       0       0       0       0       0       0
      Totals:         2       4       0       0       0       0       0       0       0       0       0       0       0       0       0       0       0
Total ram usage:        6 bytes
 Hardware stack levels used:    1
 Hardware stack levels required when called:    7
 This function calls:
		___awdiv
 This function is called by:
		_HandleConfigData
 This function uses a non-reentrant model


 *************** function _DoorIndicatorUpdateConfig *****************
 Defined at:
		line 159 in file "../src/DoorIndicator.c"
 Parameters:    Size  Location     Type
  configData      2   35[COMRAM] PTR struct _CONFIG
		 -> m_config(8), 
 Auto vars:     Size  Location     Type
		None
 Return value:  Size  Location     Type
		None               void
 Registers used:
		wreg, fsr2l, fsr2h, status,2, status,0, prodl, prodh, cstack
 Tracked objects:
		On entry : 
		On exit  : 
		Unchanged: 
 Data sizes:     COMRAM   BANK0   BANK1   BANK2   BANK3   BANK4   BANK5   BANK6   BANK7   BANK8   BANK9  BANK10  BANK11  BANK12  BANK13  BANK14  BANK15
      Params:         2       0       0       0       0       0       0       0       0       0       0       0       0       0       0       0       0
      Locals:         0       0       0       0       0       0       0       0       0       0       0       0       0       0       0       0       0
      Temps:          0       4       0       0       0       0       0       0       0       0       0       0       0       0       0       0       0
      Totals:         2       4       0       0       0       0       0       0       0       0       0       0       0       0       0       0       0
Total ram usage:        6 bytes
 Hardware stack levels used:    1
 Hardware stack levels required when called:    7
 This function calls:
		___awdiv
 This function is called by:
		_HandleConfigData
 This function uses a non-reentrant model


 *************** function ___awdiv *****************
 Defined at:
		line 8 in file "C:\Program Files (x86)\Microchip\xc8\v1.35\sources\common\awdiv.c"
 Parameters:    Size  Location     Type
  dividend        2   27[COMRAM] int 
  divisor         2   29[COMRAM] int 
 Auto vars:     Size  Location     Type
  quotient        2   33[COMRAM] int 
  sign            1   32[COMRAM] unsigned char 
  counter         1   31[COMRAM] unsigned char 
 Return value:  Size  Location     Type
                  2   27[COMRAM] int 
 Registers used:
		wreg, status,2, status,0
 Tracked objects:
		On entry : 
		On exit  : 
		Unchanged: 
 Data sizes:     COMRAM   BANK0   BANK1   BANK2   BANK3   BANK4   BANK5   BANK6   BANK7   BANK8   BANK9  BANK10  BANK11  BANK12  BANK13  BANK14  BANK15
      Params:         4       0       0       0       0       0       0       0       0       0       0       0       0       0       0       0       0
      Locals:         4       0       0       0       0       0       0       0       0       0       0       0       0       0       0       0       0
      Temps:          0       0       0       0       0       0       0       0       0       0       0       0       0       0       0       0       0
      Totals:         8       0       0       0       0       0       0       0       0       0       0       0       0       0       0       0       0
Total ram usage:        8 bytes
 Hardware stack levels used:    1
 Hardware stack levels required when called:    6
 This function calls:
		Nothing
 This function is called by:
		_DoorIndicatorUpdateConfig
		_DoorSwitchUpdateConfig
 This function uses a non-reentrant model


 *************** function _Beep *****************
 Defined at:
		line 31 in file "../src/Beep.c"
 Parameters:    Size  Location     Type
  value           4   35[COMRAM] unsigned long 
 Auto vars:     Size  Location     Type
		None
 Return value:  Size  Location     Type
		None               void
 Registers used:
		wreg, fsr2l, fsr2h, status,2, cstack
 Tracked objects:
		On entry : 
		On exit  : 
		Unchanged: 
 Data sizes:     COMRAM   BANK0   BANK1   BANK2   BANK3   BANK4   BANK5   BANK6   BANK7   BANK8   BANK9  BANK10  BANK11  BANK12  BANK13  BANK14  BANK15
      Params:         4       0       0       0       0       0       0       0       0       0       0       0       0       0       0       0       0
      Locals:         0       0       0       0       0       0       0       0       0       0       0       0       0       0       0       0       0
      Temps:          0       0       0       0       0       0       0       0       0       0       0       0       0       0       0       0       0
      Totals:         4       0       0       0       0       0       0       0       0       0       0       0       0       0       0       0       0
Total ram usage:        4 bytes
 Hardware stack levels used:    1
 Hardware stack levels required when called:    8
 This function calls:
		_TickGet
 This function is called by:
		_ProcessStateDoorIndicatorOpenTooLong
		_ProcessStateDoorSwitchPressedTooLong
		_setDoorOpen
		_HandleReceivedBytes
 This function uses a non-reentrant model


 *************** function _HandleConnectionResponse *****************
 Defined at:
		line 660 in file "../src/NDC.c"
 Parameters:    Size  Location     Type
		None
 Auto vars:     Size  Location     Type
		None
 Return value:  Size  Location     Type
		None               void
 Registers used:
		wreg, fsr1l, fsr1h, fsr2l, fsr2h, status,2, status,0, tblptrl, tblptrh, tblptru, prodl, prodh, cstack
 Tracked objects:
		On entry : 
		On exit  : 
		Unchanged: 
 Data sizes:     COMRAM   BANK0   BANK1   BANK2   BANK3   BANK4   BANK5   BANK6   BANK7   BANK8   BANK9  BANK10  BANK11  BANK12  BANK13  BANK14  BANK15
      Params:         0       0       0       0       0       0       0       0       0       0       0       0       0       0       0       0       0
      Locals:         0       0       0       0       0       0       0       0       0       0       0       0       0       0       0       0       0
      Temps:          0       0       0       0       0       0       0       0       0       0       0       0       0       0       0       0       0
      Totals:         0       0       0       0       0       0       0       0       0       0       0       0       0       0       0       0       0
Total ram usage:        0 bytes
 Hardware stack levels used:    1
 Hardware stack levels required when called:   16
 This function calls:
		_SendGetConfigData
		_TickGet
		_UDPGetArray
 This function is called by:
		_NDCFSM
 This function uses a non-reentrant model


 *************** function _SendGetConfigData *****************
 Defined at:
		line 561 in file "../src/NDC.c"
 Parameters:    Size  Location     Type
		None
 Auto vars:     Size  Location     Type
		None
 Return value:  Size  Location     Type
		None               void
 Registers used:
		wreg, fsr1l, fsr1h, fsr2l, fsr2h, status,2, status,0, tblptrl, tblptrh, tblptru, prodl, prodh, cstack
 Tracked objects:
		On entry : 
		On exit  : 
		Unchanged: 
 Data sizes:     COMRAM   BANK0   BANK1   BANK2   BANK3   BANK4   BANK5   BANK6   BANK7   BANK8   BANK9  BANK10  BANK11  BANK12  BANK13  BANK14  BANK15
      Params:         0       0       0       0       0       0       0       0       0       0       0       0       0       0       0       0       0
      Locals:         0       0       0       0       0       0       0       0       0       0       0       0       0       0       0       0       0
      Temps:          0       0       0       0       0       0       0       0       0       0       0       0       0       0       0       0       0
      Totals:         0       0       0       0       0       0       0       0       0       0       0       0       0       0       0       0       0
Total ram usage:        0 bytes
 Hardware stack levels used:    1
 Hardware stack levels required when called:   15
 This function calls:
		_SendUDPMessage
 This function is called by:
		_HandleConnectionResponse
 This function uses a non-reentrant model


 *************** function _CheckWaitForCodeTimer *****************
 Defined at:
		line 226 in file "../src/NDC.c"
 Parameters:    Size  Location     Type
		None
 Auto vars:     Size  Location     Type
		None
 Return value:  Size  Location     Type
		None               void
 Registers used:
		wreg, fsr2l, fsr2h, status,2, status,0, prodl, prodh, cstack
 Tracked objects:
		On entry : 
		On exit  : 
		Unchanged: 
 Data sizes:     COMRAM   BANK0   BANK1   BANK2   BANK3   BANK4   BANK5   BANK6   BANK7   BANK8   BANK9  BANK10  BANK11  BANK12  BANK13  BANK14  BANK15
      Params:         0       0       0       0       0       0       0       0       0       0       0       0       0       0       0       0       0
      Locals:         0       0       0       0       0       0       0       0       0       0       0       0       0       0       0       0       0
      Temps:          0      12       0       0       0       0       0       0       0       0       0       0       0       0       0       0       0
      Totals:         0      12       0       0       0       0       0       0       0       0       0       0       0       0       0       0       0
Total ram usage:       12 bytes
 Hardware stack levels used:    1
 Hardware stack levels required when called:    8
 This function calls:
		_TickGet
 This function is called by:
		_NDCFSM
 This function uses a non-reentrant model


 *************** function _CheckKeypad *****************
 Defined at:
		line 257 in file "../src/NDC.c"
 Parameters:    Size  Location     Type
		None
 Auto vars:     Size  Location     Type
  buff            8    0[BANK2 ] unsigned char [8]
  wiegandCode     4   14[BANK2 ] long 
  tmp             4    0        long 
  index           2   18[BANK2 ] int 
  i               2   12[BANK2 ] int 
  stopIndex       2   10[BANK2 ] int 
  messageSize     2    8[BANK2 ] int 
 Return value:  Size  Location     Type
		None               void
 Registers used:
		wreg, fsr1l, fsr1h, fsr2l, fsr2h, status,2, status,0, tblptrl, tblptrh, tblptru, prodl, prodh, cstack
 Tracked objects:
		On entry : 
		On exit  : 
		Unchanged: 
 Data sizes:     COMRAM   BANK0   BANK1   BANK2   BANK3   BANK4   BANK5   BANK6   BANK7   BANK8   BANK9  BANK10  BANK11  BANK12  BANK13  BANK14  BANK15
      Params:         0       0       0       0       0       0       0       0       0       0       0       0       0       0       0       0       0
      Locals:         0       0       0      20       0       0       0       0       0       0       0       0       0       0       0       0       0
      Temps:          0       0       3       0       0       0       0       0       0       0       0       0       0       0       0       0       0
      Totals:         0       0       3      20       0       0       0       0       0       0       0       0       0       0       0       0       0
Total ram usage:       23 bytes
 Hardware stack levels used:    1
 Hardware stack levels required when called:   15
 This function calls:
		_GetWiegandCode
		_SendUDPMessage
		_TickGet
		_ltoa
		_memset
 This function is called by:
		_NDCFSM
 This function uses a non-reentrant model


 *************** function _ltoa *****************
 Defined at:
		line 7 in file "C:\Program Files (x86)\Microchip\xc8\v1.35\sources\common\ltoa.c"
 Parameters:    Size  Location     Type
  buf             2   13[BANK0 ] PTR unsigned char 
		 -> RAM(3935), 
  val             4   15[BANK0 ] long 
  base            2   19[BANK0 ] int 
 Auto vars:     Size  Location     Type
  cp              2    0        PTR unsigned char 
		 -> RAM(3935), 
 Return value:  Size  Location     Type
                  2   13[BANK0 ] PTR unsigned char 
 Registers used:
		wreg, fsr2l, fsr2h, status,2, status,0, cstack
 Tracked objects:
		On entry : 
		On exit  : 
		Unchanged: 
 Data sizes:     COMRAM   BANK0   BANK1   BANK2   BANK3   BANK4   BANK5   BANK6   BANK7   BANK8   BANK9  BANK10  BANK11  BANK12  BANK13  BANK14  BANK15
      Params:         0       8       0       0       0       0       0       0       0       0       0       0       0       0       0       0       0
      Locals:         0       2       0       0       0       0       0       0       0       0       0       0       0       0       0       0       0
      Temps:          0       0       0       0       0       0       0       0       0       0       0       0       0       0       0       0       0
      Totals:         0      10       0       0       0       0       0       0       0       0       0       0       0       0       0       0       0
Total ram usage:       10 bytes
 Hardware stack levels used:    1
 Hardware stack levels required when called:    8
 This function calls:
		_ultoa
 This function is called by:
		_CheckKeypad
 This function uses a non-reentrant model


 *************** function _ultoa *****************
 Defined at:
		line 32 in file "C:\Program Files (x86)\Microchip\xc8\v1.35\sources\common\ltoa.c"
 Parameters:    Size  Location     Type
  buf             2    0[BANK0 ] PTR unsigned char 
		 -> RAM(3935), 
  val             4    2[BANK0 ] unsigned long 
  base            2    6[BANK0 ] int 
 Auto vars:     Size  Location     Type
  v               4    8[BANK0 ] unsigned long 
  c               1   12[BANK0 ] unsigned char 
 Return value:  Size  Location     Type
                  2    0[BANK0 ] PTR unsigned char 
 Registers used:
		wreg, fsr2l, fsr2h, status,2, status,0, cstack
 Tracked objects:
		On entry : 
		On exit  : 
		Unchanged: 
 Data sizes:     COMRAM   BANK0   BANK1   BANK2   BANK3   BANK4   BANK5   BANK6   BANK7   BANK8   BANK9  BANK10  BANK11  BANK12  BANK13  BANK14  BANK15
      Params:         0       8       0       0       0       0       0       0       0       0       0       0       0       0       0       0       0
      Locals:         0       5       0       0       0       0       0       0       0       0       0       0       0       0       0       0       0
      Temps:          0       0       0       0       0       0       0       0       0       0       0       0       0       0       0       0       0
      Totals:         0      13       0       0       0       0       0       0       0       0       0       0       0       0       0       0       0
Total ram usage:       13 bytes
 Hardware stack levels used:    1
 Hardware stack levels required when called:    7
 This function calls:
		___lldiv
		___llmod
 This function is called by:
		_ltoa
 This function uses a non-reentrant model


 *************** function ___llmod *****************
 Defined at:
		line 8 in file "C:\Program Files (x86)\Microchip\xc8\v1.35\sources\common\llmod.c"
 Parameters:    Size  Location     Type
  dividend        4   27[COMRAM] unsigned long 
  divisor         4   31[COMRAM] unsigned long 
 Auto vars:     Size  Location     Type
  counter         1   35[COMRAM] unsigned char 
 Return value:  Size  Location     Type
                  4   27[COMRAM] unsigned long 
 Registers used:
		wreg, status,2, status,0
 Tracked objects:
		On entry : 
		On exit  : 
		Unchanged: 
 Data sizes:     COMRAM   BANK0   BANK1   BANK2   BANK3   BANK4   BANK5   BANK6   BANK7   BANK8   BANK9  BANK10  BANK11  BANK12  BANK13  BANK14  BANK15
      Params:         8       0       0       0       0       0       0       0       0       0       0       0       0       0       0       0       0
      Locals:         1       0       0       0       0       0       0       0       0       0       0       0       0       0       0       0       0
      Temps:          0       0       0       0       0       0       0       0       0       0       0       0       0       0       0       0       0
      Totals:         9       0       0       0       0       0       0       0       0       0       0       0       0       0       0       0       0
Total ram usage:        9 bytes
 Hardware stack levels used:    1
 Hardware stack levels required when called:    6
 This function calls:
		Nothing
 This function is called by:
		_ultoa
 This function uses a non-reentrant model


 *************** function ___lldiv *****************
 Defined at:
		line 8 in file "C:\Program Files (x86)\Microchip\xc8\v1.35\sources\common\lldiv.c"
 Parameters:    Size  Location     Type
  dividend        4   27[COMRAM] unsigned long 
  divisor         4   31[COMRAM] unsigned long 
 Auto vars:     Size  Location     Type
  quotient        4   35[COMRAM] unsigned long 
  counter         1   39[COMRAM] unsigned char 
 Return value:  Size  Location     Type
                  4   27[COMRAM] unsigned long 
 Registers used:
		wreg, status,2, status,0
 Tracked objects:
		On entry : 
		On exit  : 
		Unchanged: 
 Data sizes:     COMRAM   BANK0   BANK1   BANK2   BANK3   BANK4   BANK5   BANK6   BANK7   BANK8   BANK9  BANK10  BANK11  BANK12  BANK13  BANK14  BANK15
      Params:         8       0       0       0       0       0       0       0       0       0       0       0       0       0       0       0       0
      Locals:         5       0       0       0       0       0       0       0       0       0       0       0       0       0       0       0       0
      Temps:          0       0       0       0       0       0       0       0       0       0       0       0       0       0       0       0       0
      Totals:        13       0       0       0       0       0       0       0       0       0       0       0       0       0       0       0       0
Total ram usage:       13 bytes
 Hardware stack levels used:    1
 Hardware stack levels required when called:    6
 This function calls:
		Nothing
 This function is called by:
		_ultoa
 This function uses a non-reentrant model


 *************** function _SendUDPMessage *****************
 Defined at:
		line 393 in file "../src/NDC.c"
 Parameters:    Size  Location     Type
  message         2    0[BANK1 ] PTR unsigned char 
		 -> m_messageBuffer(500), 
  messageSize     2    2[BANK1 ] int 
  udpSocket       1    4[BANK1 ] unsigned char 
 Auto vars:     Size  Location     Type
  i               2  100[BANK0 ] int 
 Return value:  Size  Location     Type
		None               void
 Registers used:
		wreg, fsr1l, fsr1h, fsr2l, fsr2h, status,2, status,0, tblptrl, tblptrh, tblptru, prodl, prodh, cstack
 Tracked objects:
		On entry : 
		On exit  : 
		Unchanged: 
 Data sizes:     COMRAM   BANK0   BANK1   BANK2   BANK3   BANK4   BANK5   BANK6   BANK7   BANK8   BANK9  BANK10  BANK11  BANK12  BANK13  BANK14  BANK15
      Params:         0       0       5       0       0       0       0       0       0       0       0       0       0       0       0       0       0
      Locals:         0       2       0       0       0       0       0       0       0       0       0       0       0       0       0       0       0
      Temps:          0       0       0       0       0       0       0       0       0       0       0       0       0       0       0       0       0
      Totals:         0       2       5       0       0       0       0       0       0       0       0       0       0       0       0       0       0
Total ram usage:        7 bytes
 Hardware stack levels used:    1
 Hardware stack levels required when called:   14
 This function calls:
		_DelayMs
		_StackTask
		_UDPFlush
		_UDPIsPutReady
		_UDPPutArray
 This function is called by:
		_CheckKeypad
		_SendDoorStatus
		_SendDoorSwitchPressedEvent
		_SendFirstConnectionMadeEvent
		_SendDoorOpenEvent
		_SendDoorClosedEvent
		_SendDoorOpenTooLongEvent
		_SendDoorSwitchPressedTooLongEvent
		_SendDoorTimerExpiredEvent
		_SendGetConfigData
		_SendDeviceReadySignal
		_SendConnectionRequest
		_SendVersionString
		_SendHeartBeat
 This function uses a non-reentrant model


 *************** function _StackTask *****************
 Defined at:
		line 218 in file "../framework/tcpip/src/common/stack_task.c"
 Parameters:    Size  Location     Type
		None
 Auto vars:     Size  Location     Type
  bCurrentLink    1   92[BANK0 ] unsigned char 
  tempLocalIP     4   96[BANK0 ] struct .
  dataCount       2   93[BANK0 ] unsigned int 
  cIPFrameType    1   95[BANK0 ] unsigned char 
  cFrameType      1   91[BANK0 ] unsigned char 
 Return value:  Size  Location     Type
		None               void
 Registers used:
		wreg, fsr1l, fsr1h, fsr2l, fsr2h, status,2, status,0, tblptrl, tblptrh, tblptru, prodl, prodh, cstack
 Tracked objects:
		On entry : 
		On exit  : 
		Unchanged: 
 Data sizes:     COMRAM   BANK0   BANK1   BANK2   BANK3   BANK4   BANK5   BANK6   BANK7   BANK8   BANK9  BANK10  BANK11  BANK12  BANK13  BANK14  BANK15
      Params:         0       0       0       0       0       0       0       0       0       0       0       0       0       0       0       0       0
      Locals:         0       9       0       0       0       0       0       0       0       0       0       0       0       0       0       0       0
      Temps:          0      12       0       0       0       0       0       0       0       0       0       0       0       0       0       0       0
      Totals:         0      21       0       0       0       0       0       0       0       0       0       0       0       0       0       0       0
Total ram usage:       21 bytes
 Hardware stack levels used:    1
 Hardware stack levels required when called:   13
 This function calls:
		_ARPProcess
		_DHCPInit
		_DHCPIsBound
		_DHCPTask
		_ICMPProcess
		_IPGetHeader
		_MACGetHeader
		_MACIsLinked
		_UDPDiscard
		_UDPProcess
		_UDPTask
 This function is called by:
		_SendUDPMessage
		_main
 This function uses a non-reentrant model


 *************** function _UDPTask *****************
 Defined at:
		line 269 in file "../framework/tcpip/src/udp.c"
 Parameters:    Size  Location     Type
		None
 Auto vars:     Size  Location     Type
  ss              1   50[BANK0 ] unsigned char 
 Return value:  Size  Location     Type
		None               void
 Registers used:
		wreg, fsr1l, fsr1h, fsr2l, fsr2h, status,2, status,0, tblptrl, tblptrh, tblptru, prodl, prodh, cstack
 Tracked objects:
		On entry : 
		On exit  : 
		Unchanged: 
 Data sizes:     COMRAM   BANK0   BANK1   BANK2   BANK3   BANK4   BANK5   BANK6   BANK7   BANK8   BANK9  BANK10  BANK11  BANK12  BANK13  BANK14  BANK15
      Params:         0       0       0       0       0       0       0       0       0       0       0       0       0       0       0       0       0
      Locals:         0       1       0       0       0       0       0       0       0       0       0       0       0       0       0       0       0
      Temps:          0       4       0       0       0       0       0       0       0       0       0       0       0       0       0       0       0
      Totals:         0       5       0       0       0       0       0       0       0       0       0       0       0       0       0       0       0
Total ram usage:        5 bytes
 Hardware stack levels used:    1
 Hardware stack levels required when called:   12
 This function calls:
		_ARPIsResolved
		_ARPResolve
		_TickGetDiv256
 This function is called by:
		_StackTask
 This function uses a non-reentrant model


 *************** function _TickGetDiv256 *****************
 Defined at:
		line 286 in file "../framework/tcpip/src/common/tick.c"
 Parameters:    Size  Location     Type
		None
 Auto vars:     Size  Location     Type
  dw              4   31[COMRAM] unsigned long 
 Return value:  Size  Location     Type
                  4   27[COMRAM] unsigned long 
 Registers used:
		fsr2l, fsr2h, cstack
 Tracked objects:
		On entry : 
		On exit  : 
		Unchanged: 
 Data sizes:     COMRAM   BANK0   BANK1   BANK2   BANK3   BANK4   BANK5   BANK6   BANK7   BANK8   BANK9  BANK10  BANK11  BANK12  BANK13  BANK14  BANK15
      Params:         4       0       0       0       0       0       0       0       0       0       0       0       0       0       0       0       0
      Locals:         4       0       0       0       0       0       0       0       0       0       0       0       0       0       0       0       0
      Temps:          0       0       0       0       0       0       0       0       0       0       0       0       0       0       0       0       0
      Totals:         8       0       0       0       0       0       0       0       0       0       0       0       0       0       0       0       0
Total ram usage:        8 bytes
 Hardware stack levels used:    1
 Hardware stack levels required when called:    7
 This function calls:
		_GetTickCopy
 This function is called by:
		_UDPTask
 This function uses a non-reentrant model


 *************** function _ARPResolve *****************
 Defined at:
		line 531 in file "../framework/tcpip/src/arp.c"
 Parameters:    Size  Location     Type
  IPAddr          2    0[BANK0 ] PTR struct .
		 -> UDPSocketInfo.remote(10), UDPSocketInfo(230), 
 Auto vars:     Size  Location     Type
  packet         28   18[BANK0 ] struct .
 Return value:  Size  Location     Type
		None               void
 Registers used:
		wreg, fsr1l, fsr1h, fsr2l, fsr2h, status,2, status,0, tblptrl, tblptrh, tblptru, cstack
 Tracked objects:
		On entry : 
		On exit  : 
		Unchanged: 
 Data sizes:     COMRAM   BANK0   BANK1   BANK2   BANK3   BANK4   BANK5   BANK6   BANK7   BANK8   BANK9  BANK10  BANK11  BANK12  BANK13  BANK14  BANK15
      Params:         0       2       0       0       0       0       0       0       0       0       0       0       0       0       0       0       0
      Locals:         0      32       0       0       0       0       0       0       0       0       0       0       0       0       0       0       0
      Temps:          0      12       0       0       0       0       0       0       0       0       0       0       0       0       0       0       0
      Totals:         0      46       0       0       0       0       0       0       0       0       0       0       0       0       0       0       0
Total ram usage:       46 bytes
 Hardware stack levels used:    1
 Hardware stack levels required when called:   11
 This function calls:
		_ARPPut
 This function is called by:
		_UDPTask
 This function uses a non-reentrant model


 *************** function _ARPIsResolved *****************
 Defined at:
		line 612 in file "../framework/tcpip/src/arp.c"
 Parameters:    Size  Location     Type
  IPAddr          2   27[COMRAM] PTR struct .
		 -> UDPSocketInfo.remote(10), UDPSocketInfo(230), 
  MACAddr         2   29[COMRAM] PTR struct .
		 -> UDPSocketInfo.remote(10), UDPSocketInfo(230), 
 Auto vars:     Size  Location     Type
		None
 Return value:  Size  Location     Type
                  1    wreg      unsigned char 
 Registers used:
		wreg, fsr1l, fsr1h, fsr2l, fsr2h, status,2, status,0
 Tracked objects:
		On entry : 
		On exit  : 
		Unchanged: 
 Data sizes:     COMRAM   BANK0   BANK1   BANK2   BANK3   BANK4   BANK5   BANK6   BANK7   BANK8   BANK9  BANK10  BANK11  BANK12  BANK13  BANK14  BANK15
      Params:         4       0       0       0       0       0       0       0       0       0       0       0       0       0       0       0       0
      Locals:         0       0       0       0       0       0       0       0       0       0       0       0       0       0       0       0       0
      Temps:          0      12       0       0       0       0       0       0       0       0       0       0       0       0       0       0       0
      Totals:         4      12       0       0       0       0       0       0       0       0       0       0       0       0       0       0       0
Total ram usage:       16 bytes
 Hardware stack levels used:    1
 Hardware stack levels required when called:    6
 This function calls:
		Nothing
 This function is called by:
		_UDPTask
 This function uses a non-reentrant model


 *************** function _UDPProcess *****************
 Defined at:
		line 1116 in file "../framework/tcpip/src/udp.c"
 Parameters:    Size  Location     Type
  remoteNode      2   29[BANK0 ] PTR struct .
		 -> remoteNode(10), 
  localIP         1   31[BANK0 ] PTR struct .
		 -> StackTask@tempLocalIP(4), 
  len             2   32[BANK0 ] unsigned int 
 Auto vars:     Size  Location     Type
  pseudoHeader   12   39[BANK0 ] struct _PSEUDO_HEADER
  h               8   51[BANK0 ] struct .
  checksums       4   35[BANK0 ] struct .
  s               1   34[BANK0 ] unsigned char 
 Return value:  Size  Location     Type
                  1    wreg      unsigned char 
 Registers used:
		wreg, fsr1l, fsr1h, fsr2l, fsr2h, status,2, status,0, tblptrl, tblptrh, tblptru, prodl, prodh, cstack
 Tracked objects:
		On entry : 
		On exit  : 
		Unchanged: 
 Data sizes:     COMRAM   BANK0   BANK1   BANK2   BANK3   BANK4   BANK5   BANK6   BANK7   BANK8   BANK9  BANK10  BANK11  BANK12  BANK13  BANK14  BANK15
      Params:         0       5       0       0       0       0       0       0       0       0       0       0       0       0       0       0       0
      Locals:         0      25       0       0       0       0       0       0       0       0       0       0       0       0       0       0       0
      Temps:          0       0       0       0       0       0       0       0       0       0       0       0       0       0       0       0       0
      Totals:         0      30       0       0       0       0       0       0       0       0       0       0       0       0       0       0       0
Total ram usage:       30 bytes
 Hardware stack levels used:    1
 Hardware stack levels required when called:    8
 This function calls:
		_CalcIPBufferChecksum
		_CalcIPChecksum
		_FindMatchingSocket
		_IPSetRxBuffer
		_MACDiscardRx
		_MACGetArray
		_swaps
 This function is called by:
		_StackTask
 This function uses a non-reentrant model


 *************** function _FindMatchingSocket *****************
 Defined at:
		line 1196 in file "../framework/tcpip/src/udp.c"
 Parameters:    Size  Location     Type
  h               1    wreg     PTR struct .
		 -> UDPProcess@h(8), 
  remoteNode      2   37[COMRAM] PTR struct .
		 -> remoteNode(10), 
  localIP         1   39[COMRAM] PTR struct .
		 -> StackTask@tempLocalIP(4), 
 Auto vars:     Size  Location     Type
  h               1    8[BANK0 ] PTR struct .
		 -> UDPProcess@h(8), 
  p               2   11[BANK0 ] PTR struct .
		 -> UDPSocketInfo(230), 
  s               1   10[BANK0 ] unsigned char 
  partialMatch    1    9[BANK0 ] unsigned char 
 Return value:  Size  Location     Type
                  1    wreg      unsigned char 
 Registers used:
		wreg, fsr1l, fsr1h, fsr2l, fsr2h, status,2, status,0, tblptrl, tblptrh, tblptru, prodl, prodh, cstack
 Tracked objects:
		On entry : 
		On exit  : 
		Unchanged: 
 Data sizes:     COMRAM   BANK0   BANK1   BANK2   BANK3   BANK4   BANK5   BANK6   BANK7   BANK8   BANK9  BANK10  BANK11  BANK12  BANK13  BANK14  BANK15
      Params:         3       0       0       0       0       0       0       0       0       0       0       0       0       0       0       0       0
      Locals:         0       5       0       0       0       0       0       0       0       0       0       0       0       0       0       0       0
      Temps:          0       8       0       0       0       0       0       0       0       0       0       0       0       0       0       0       0
      Totals:         3      13       0       0       0       0       0       0       0       0       0       0       0       0       0       0       0
Total ram usage:       16 bytes
 Hardware stack levels used:    1
 Hardware stack levels required when called:    7
 This function calls:
		_memcpy
 This function is called by:
		_UDPProcess
 This function uses a non-reentrant model


 *************** function _MACGetHeader *****************
 Defined at:
		line 399 in file "../framework/tcpip/src/eth97j60.c"
 Parameters:    Size  Location     Type
  remote          2   37[COMRAM] PTR struct .
		 -> remoteNode(10), 
  type            1   39[COMRAM] PTR unsigned char 
		 -> StackTask@cFrameType(1), 
 Auto vars:     Size  Location     Type
  header         20    0[BANK0 ] struct _ENC_PREAMBLE
 Return value:  Size  Location     Type
                  1    wreg      unsigned char 
 Registers used:
		wreg, fsr1l, fsr1h, fsr2l, fsr2h, status,2, status,0, tblptrl, tblptrh, tblptru, cstack
 Tracked objects:
		On entry : 
		On exit  : 
		Unchanged: 
 Data sizes:     COMRAM   BANK0   BANK1   BANK2   BANK3   BANK4   BANK5   BANK6   BANK7   BANK8   BANK9  BANK10  BANK11  BANK12  BANK13  BANK14  BANK15
      Params:         3       0       0       0       0       0       0       0       0       0       0       0       0       0       0       0       0
      Locals:         0      20       0       0       0       0       0       0       0       0       0       0       0       0       0       0       0
      Temps:          0       0       0       0       0       0       0       0       0       0       0       0       0       0       0       0       0
      Totals:         3      20       0       0       0       0       0       0       0       0       0       0       0       0       0       0       0
Total ram usage:       23 bytes
 Hardware stack levels used:    1
 Hardware stack levels required when called:    7
 This function calls:
		_MACDiscardRx
		_MACGetArray
		_memcpy
		_swaps
 This function is called by:
		_StackTask
 This function uses a non-reentrant model


 *************** function _IPGetHeader *****************
 Defined at:
		line 95 in file "../framework/tcpip/src/ip.c"
 Parameters:    Size  Location     Type
  localIP         1    wreg     PTR struct .
		 -> StackTask@tempLocalIP(4), 
  remote          2   37[BANK0 ] PTR struct .
		 -> remoteNode(10), 
  protocol        1   39[BANK0 ] PTR unsigned char 
		 -> StackTask@cIPFrameType(1), 
  len             1   40[BANK0 ] PTR unsigned int 
		 -> StackTask@dataCount(2), 
 Auto vars:     Size  Location     Type
  localIP         1   47[BANK0 ] PTR struct .
		 -> StackTask@tempLocalIP(4), 
  header         20   48[BANK0 ] struct _IP_HEADER
  CalcChecksum    2   45[BANK0 ] struct .
 Return value:  Size  Location     Type
                  1    wreg      unsigned char 
 Registers used:
		wreg, fsr1l, fsr1h, fsr2l, fsr2h, status,2, status,0, cstack
 Tracked objects:
		On entry : 
		On exit  : 
		Unchanged: 
 Data sizes:     COMRAM   BANK0   BANK1   BANK2   BANK3   BANK4   BANK5   BANK6   BANK7   BANK8   BANK9  BANK10  BANK11  BANK12  BANK13  BANK14  BANK15
      Params:         0       4       0       0       0       0       0       0       0       0       0       0       0       0       0       0       0
      Locals:         0      23       0       0       0       0       0       0       0       0       0       0       0       0       0       0       0
      Temps:          0       4       0       0       0       0       0       0       0       0       0       0       0       0       0       0       0
      Totals:         0      31       0       0       0       0       0       0       0       0       0       0       0       0       0       0       0
Total ram usage:       31 bytes
 Hardware stack levels used:    1
 Hardware stack levels required when called:    9
 This function calls:
		_MACCalcRxChecksum
		_MACGetArray
		_MACSetReadPtrInRx
		_SwapIPHeader
 This function is called by:
		_StackTask
 This function uses a non-reentrant model


 *************** function _ICMPProcess *****************
 Defined at:
		line 101 in file "../framework/tcpip/src/icmp.c"
 Parameters:    Size  Location     Type
  remote          2   37[BANK0 ] PTR struct .
		 -> remoteNode(10), 
  len             2   39[BANK0 ] unsigned int 
 Auto vars:     Size  Location     Type
  dwVal           4   41[BANK0 ] struct .
 Return value:  Size  Location     Type
		None               void
 Registers used:
		wreg, fsr2l, fsr2h, status,2, status,0, cstack
 Tracked objects:
		On entry : 
		On exit  : 
		Unchanged: 
 Data sizes:     COMRAM   BANK0   BANK1   BANK2   BANK3   BANK4   BANK5   BANK6   BANK7   BANK8   BANK9  BANK10  BANK11  BANK12  BANK13  BANK14  BANK15
      Params:         0       4       0       0       0       0       0       0       0       0       0       0       0       0       0       0       0
      Locals:         0       4       0       0       0       0       0       0       0       0       0       0       0       0       0       0       0
      Temps:          0       0       0       0       0       0       0       0       0       0       0       0       0       0       0       0       0
      Totals:         0       8       0       0       0       0       0       0       0       0       0       0       0       0       0       0       0
Total ram usage:        8 bytes
 Hardware stack levels used:    1
 Hardware stack levels required when called:   10
 This function calls:
		_IPPutHeader
		_MACCalcRxChecksum
		_MACFlush
		_MACGetArray
		_MACIsMemCopyDone
		_MACIsTxReady
		_MACMemCopyAsync
		_MACPutArray
		_MACSetWritePtr
 This function is called by:
		_StackTask
 This function uses a non-reentrant model


 *************** function _MACMemCopyAsync *****************
 Defined at:
		line 859 in file "../framework/tcpip/src/eth97j60.c"
 Parameters:    Size  Location     Type
  destAddr        2   28[COMRAM] unsigned short 
  sourceAddr      2   30[COMRAM] unsigned short 
  len             2   32[COMRAM] unsigned int 
 Auto vars:     Size  Location     Type
  WriteSave       2    2[BANK0 ] struct .
  ReadSave        2    0[BANK0 ] struct .
  UpdateReadPo    1    5[BANK0 ] unsigned char 
  UpdateWriteP    1    4[BANK0 ] unsigned char 
 Return value:  Size  Location     Type
		None               void
 Registers used:
		wreg, status,2, status,0, cstack
 Tracked objects:
		On entry : 
		On exit  : 
		Unchanged: 
 Data sizes:     COMRAM   BANK0   BANK1   BANK2   BANK3   BANK4   BANK5   BANK6   BANK7   BANK8   BANK9  BANK10  BANK11  BANK12  BANK13  BANK14  BANK15
      Params:         6       0       0       0       0       0       0       0       0       0       0       0       0       0       0       0       0
      Locals:         0       6       0       0       0       0       0       0       0       0       0       0       0       0       0       0       0
      Temps:          4       0       0       0       0       0       0       0       0       0       0       0       0       0       0       0       0
      Totals:        10       6       0       0       0       0       0       0       0       0       0       0       0       0       0       0       0
Total ram usage:       16 bytes
 Hardware stack levels used:    1
 Hardware stack levels required when called:    7
 This function calls:
		_MACGet
		_MACPut
 This function is called by:
		_ICMPProcess
 This function uses a non-reentrant model


 *************** function _MACIsMemCopyDone *****************
 Defined at:
		line 961 in file "../framework/tcpip/src/eth97j60.c"
 Parameters:    Size  Location     Type
		None
 Auto vars:     Size  Location     Type
		None
 Return value:  Size  Location     Type
                  1    wreg      unsigned char 
 Registers used:
		wreg
 Tracked objects:
		On entry : 
		On exit  : 
		Unchanged: 
 Data sizes:     COMRAM   BANK0   BANK1   BANK2   BANK3   BANK4   BANK5   BANK6   BANK7   BANK8   BANK9  BANK10  BANK11  BANK12  BANK13  BANK14  BANK15
      Params:         0       0       0       0       0       0       0       0       0       0       0       0       0       0       0       0       0
      Locals:         0       0       0       0       0       0       0       0       0       0       0       0       0       0       0       0       0
      Temps:          0       0       0       0       0       0       0       0       0       0       0       0       0       0       0       0       0
      Totals:         0       0       0       0       0       0       0       0       0       0       0       0       0       0       0       0       0
Total ram usage:        0 bytes
 Hardware stack levels used:    1
 Hardware stack levels required when called:    6
 This function calls:
		Nothing
 This function is called by:
		_ICMPProcess
 This function uses a non-reentrant model


 *************** function _MACCalcRxChecksum *****************
 Defined at:
		line 664 in file "../framework/tcpip/src/eth97j60.c"
 Parameters:    Size  Location     Type
  offset          2   29[BANK0 ] unsigned int 
  len             2   31[BANK0 ] unsigned int 
 Auto vars:     Size  Location     Type
  temp            2   35[BANK0 ] unsigned int 
  RDSave          2   33[BANK0 ] unsigned int 
 Return value:  Size  Location     Type
                  2   29[BANK0 ] unsigned int 
 Registers used:
		wreg, fsr2l, fsr2h, status,2, status,0, cstack
 Tracked objects:
		On entry : 
		On exit  : 
		Unchanged: 
 Data sizes:     COMRAM   BANK0   BANK1   BANK2   BANK3   BANK4   BANK5   BANK6   BANK7   BANK8   BANK9  BANK10  BANK11  BANK12  BANK13  BANK14  BANK15
      Params:         0       4       0       0       0       0       0       0       0       0       0       0       0       0       0       0       0
      Locals:         0       4       0       0       0       0       0       0       0       0       0       0       0       0       0       0       0
      Temps:          2       0       0       0       0       0       0       0       0       0       0       0       0       0       0       0       0
      Totals:         2       8       0       0       0       0       0       0       0       0       0       0       0       0       0       0       0
Total ram usage:       10 bytes
 Hardware stack levels used:    1
 Hardware stack levels required when called:    8
 This function calls:
		_CalcIPBufferChecksum
 This function is called by:
		_ICMPProcess
		_IPGetHeader
 This function uses a non-reentrant model


 *************** function _DHCPTask *****************
 Defined at:
		line 428 in file "../framework/tcpip/src/dhcp_client.c"
 Parameters:    Size  Location     Type
		None
 Auto vars:     Size  Location     Type
  i               1   78[BANK0 ] unsigned char 
 Return value:  Size  Location     Type
		None               void
 Registers used:
		wreg, fsr1l, fsr1h, fsr2l, fsr2h, status,2, status,0, tblptrl, tblptrh, tblptru, prodl, prodh, cstack
 Tracked objects:
		On entry : 
		On exit  : 
		Unchanged: 
 Data sizes:     COMRAM   BANK0   BANK1   BANK2   BANK3   BANK4   BANK5   BANK6   BANK7   BANK8   BANK9  BANK10  BANK11  BANK12  BANK13  BANK14  BANK15
      Params:         0       0       0       0       0       0       0       0       0       0       0       0       0       0       0       0       0
      Locals:         0       1       0       0       0       0       0       0       0       0       0       0       0       0       0       0       0
      Temps:          0      12       0       0       0       0       0       0       0       0       0       0       0       0       0       0       0
      Totals:         0      13       0       0       0       0       0       0       0       0       0       0       0       0       0       0       0
Total ram usage:       13 bytes
 Hardware stack levels used:    1
 Hardware stack levels required when called:   11
 This function calls:
		_LFSRRand
		_MACIsLinked
		_TickGet
		_UDPClose
		_UDPIsGetReady
		_UDPIsPutReady
		_UDPOpenEx
		__DHCPReceive
		__DHCPSend
		___lwmod
		_memset
 This function is called by:
		_StackTask
 This function uses a non-reentrant model


 *************** function ___lwmod *****************
 Defined at:
		line 8 in file "C:\Program Files (x86)\Microchip\xc8\v1.35\sources\common\lwmod.c"
 Parameters:    Size  Location     Type
  dividend        2   30[COMRAM] unsigned int 
  divisor         2   32[COMRAM] unsigned int 
 Auto vars:     Size  Location     Type
  counter         1   34[COMRAM] unsigned char 
 Return value:  Size  Location     Type
                  2   30[COMRAM] unsigned int 
 Registers used:
		wreg, status,2, status,0
 Tracked objects:
		On entry : 
		On exit  : 
		Unchanged: 
 Data sizes:     COMRAM   BANK0   BANK1   BANK2   BANK3   BANK4   BANK5   BANK6   BANK7   BANK8   BANK9  BANK10  BANK11  BANK12  BANK13  BANK14  BANK15
      Params:         4       0       0       0       0       0       0       0       0       0       0       0       0       0       0       0       0
      Locals:         1       0       0       0       0       0       0       0       0       0       0       0       0       0       0       0       0
      Temps:          0       0       0       0       0       0       0       0       0       0       0       0       0       0       0       0       0
      Totals:         5       0       0       0       0       0       0       0       0       0       0       0       0       0       0       0       0
Total ram usage:        5 bytes
 Hardware stack levels used:    1
 Hardware stack levels required when called:    6
 This function calls:
		Nothing
 This function is called by:
		_DHCPTask
 This function uses a non-reentrant model


 *************** function __DHCPSend *****************
 Defined at:
		line 977 in file "../framework/tcpip/src/dhcp_client.c"
 Parameters:    Size  Location     Type
  messageType     1    wreg     unsigned char 
  bRenewing       1   57[BANK0 ] unsigned char 
 Auto vars:     Size  Location     Type
  messageType     1   65[BANK0 ] unsigned char 
  MyIP            4   58[BANK0 ] struct .
  i               1   64[BANK0 ] unsigned char 
 Return value:  Size  Location     Type
		None               void
 Registers used:
		wreg, fsr2l, fsr2h, status,2, status,0, prodl, prodh, cstack
 Tracked objects:
		On entry : 
		On exit  : 
		Unchanged: 
 Data sizes:     COMRAM   BANK0   BANK1   BANK2   BANK3   BANK4   BANK5   BANK6   BANK7   BANK8   BANK9  BANK10  BANK11  BANK12  BANK13  BANK14  BANK15
      Params:         0       1       0       0       0       0       0       0       0       0       0       0       0       0       0       0       0
      Locals:         0       8       0       0       0       0       0       0       0       0       0       0       0       0       0       0       0
      Temps:          0       0       0       0       0       0       0       0       0       0       0       0       0       0       0       0       0
      Totals:         0       9       0       0       0       0       0       0       0       0       0       0       0       0       0       0       0
Total ram usage:        9 bytes
 Hardware stack levels used:    1
 Hardware stack levels required when called:   10
 This function calls:
		_UDPFlush
		_UDPPut
		_UDPPutArray
 This function is called by:
		_DHCPTask
 This function uses a non-reentrant model


 *************** function _UDPPutArray *****************
 Defined at:
		line 702 in file "../framework/tcpip/src/udp.c"
 Parameters:    Size  Location     Type
  cData           2   31[COMRAM] PTR unsigned char 
		 -> DHCPClient(32), AppConfig(51), m_messageBuffer(500), 
  wDataLen        2   33[COMRAM] unsigned int 
 Auto vars:     Size  Location     Type
  wTemp           2   35[COMRAM] unsigned int 
 Return value:  Size  Location     Type
                  2   31[COMRAM] unsigned int 
 Registers used:
		wreg, fsr2l, fsr2h, status,2, status,0, cstack
 Tracked objects:
		On entry : 
		On exit  : 
		Unchanged: 
 Data sizes:     COMRAM   BANK0   BANK1   BANK2   BANK3   BANK4   BANK5   BANK6   BANK7   BANK8   BANK9  BANK10  BANK11  BANK12  BANK13  BANK14  BANK15
      Params:         4       0       0       0       0       0       0       0       0       0       0       0       0       0       0       0       0
      Locals:         2       0       0       0       0       0       0       0       0       0       0       0       0       0       0       0       0
      Temps:          0       0       0       0       0       0       0       0       0       0       0       0       0       0       0       0       0
      Totals:         6       0       0       0       0       0       0       0       0       0       0       0       0       0       0       0       0
Total ram usage:        6 bytes
 Hardware stack levels used:    1
 Hardware stack levels required when called:    7
 This function calls:
		_MACPutArray
 This function is called by:
		_SendUDPMessage
		__DHCPSend
 This function uses a non-reentrant model


 *************** function _UDPPut *****************
 Defined at:
		line 662 in file "../framework/tcpip/src/udp.c"
 Parameters:    Size  Location     Type
  v               1    wreg     unsigned char 
 Auto vars:     Size  Location     Type
  v               1   28[COMRAM] unsigned char 
 Return value:  Size  Location     Type
                  1    wreg      unsigned char 
 Registers used:
		wreg, status,2, status,0, cstack
 Tracked objects:
		On entry : 
		On exit  : 
		Unchanged: 
 Data sizes:     COMRAM   BANK0   BANK1   BANK2   BANK3   BANK4   BANK5   BANK6   BANK7   BANK8   BANK9  BANK10  BANK11  BANK12  BANK13  BANK14  BANK15
      Params:         0       0       0       0       0       0       0       0       0       0       0       0       0       0       0       0       0
      Locals:         1       0       0       0       0       0       0       0       0       0       0       0       0       0       0       0       0
      Temps:          0       0       0       0       0       0       0       0       0       0       0       0       0       0       0       0       0
      Totals:         1       0       0       0       0       0       0       0       0       0       0       0       0       0       0       0       0
Total ram usage:        1 bytes
 Hardware stack levels used:    1
 Hardware stack levels required when called:    7
 This function calls:
		_MACPut
 This function is called by:
		__DHCPSend
 This function uses a non-reentrant model


 *************** function _UDPFlush *****************
 Defined at:
		line 862 in file "../framework/tcpip/src/udp.c"
 Parameters:    Size  Location     Type
		None
 Auto vars:     Size  Location     Type
  wChecksum       2   31[BANK0 ] unsigned int 
  wReadPtrSave    2   29[BANK0 ] unsigned short 
  pseudoHeader   12   45[BANK0 ] struct _PSEUDO_HEADER
  h               8   37[BANK0 ] struct .
  wUDPLength      2   35[BANK0 ] unsigned int 
  p               2   33[BANK0 ] PTR struct .
		 -> UDPSocketInfo(230), 
 Return value:  Size  Location     Type
		None               void
 Registers used:
		wreg, fsr2l, fsr2h, status,2, status,0, prodl, prodh, cstack
 Tracked objects:
		On entry : 
		On exit  : 
		Unchanged: 
 Data sizes:     COMRAM   BANK0   BANK1   BANK2   BANK3   BANK4   BANK5   BANK6   BANK7   BANK8   BANK9  BANK10  BANK11  BANK12  BANK13  BANK14  BANK15
      Params:         0       0       0       0       0       0       0       0       0       0       0       0       0       0       0       0       0
      Locals:         0      28       0       0       0       0       0       0       0       0       0       0       0       0       0       0       0
      Temps:          0       0       0       0       0       0       0       0       0       0       0       0       0       0       0       0       0
      Totals:         0      28       0       0       0       0       0       0       0       0       0       0       0       0       0       0       0
Total ram usage:       28 bytes
 Hardware stack levels used:    1
 Hardware stack levels required when called:    9
 This function calls:
		_CalcIPBufferChecksum
		_CalcIPChecksum
		_IPPutHeader
		_MACFlush
		_MACPutArray
		_MACSetReadPtr
		_MACSetWritePtr
		_swaps
 This function is called by:
		_SendUDPMessage
		__DHCPSend
 This function uses a non-reentrant model


 *************** function _MACSetReadPtr *****************
 Defined at:
		line 635 in file "../framework/tcpip/src/eth97j60.c"
 Parameters:    Size  Location     Type
  address         2   27[COMRAM] unsigned short 
 Auto vars:     Size  Location     Type
  oldVal          2   29[COMRAM] unsigned int 
 Return value:  Size  Location     Type
                  2   27[COMRAM] unsigned short 
 Registers used:
		None
 Tracked objects:
		On entry : 
		On exit  : 
		Unchanged: 
 Data sizes:     COMRAM   BANK0   BANK1   BANK2   BANK3   BANK4   BANK5   BANK6   BANK7   BANK8   BANK9  BANK10  BANK11  BANK12  BANK13  BANK14  BANK15
      Params:         2       0       0       0       0       0       0       0       0       0       0       0       0       0       0       0       0
      Locals:         2       0       0       0       0       0       0       0       0       0       0       0       0       0       0       0       0
      Temps:          0       0       0       0       0       0       0       0       0       0       0       0       0       0       0       0       0
      Totals:         4       0       0       0       0       0       0       0       0       0       0       0       0       0       0       0       0
Total ram usage:        4 bytes
 Hardware stack levels used:    1
 Hardware stack levels required when called:    6
 This function calls:
		Nothing
 This function is called by:
		_UDPFlush
 This function uses a non-reentrant model


 *************** function _IPPutHeader *****************
 Defined at:
		line 208 in file "../framework/tcpip/src/ip.c"
 Parameters:    Size  Location     Type
  remote          2    0[BANK0 ] PTR struct .
		 -> UDPSocketInfo.remote(10), UDPSocketInfo(230), remoteNode(10), 
  protocol        1    2[BANK0 ] unsigned char 
  len             2    3[BANK0 ] unsigned int 
 Auto vars:     Size  Location     Type
  header         20    5[BANK0 ] struct _IP_HEADER
 Return value:  Size  Location     Type
                  2    0[BANK0 ] unsigned int 
 Registers used:
		wreg, fsr2l, fsr2h, status,2, status,0, cstack
 Tracked objects:
		On entry : 
		On exit  : 
		Unchanged: 
 Data sizes:     COMRAM   BANK0   BANK1   BANK2   BANK3   BANK4   BANK5   BANK6   BANK7   BANK8   BANK9  BANK10  BANK11  BANK12  BANK13  BANK14  BANK15
      Params:         0       5       0       0       0       0       0       0       0       0       0       0       0       0       0       0       0
      Locals:         0      20       0       0       0       0       0       0       0       0       0       0       0       0       0       0       0
      Temps:          0       0       0       0       0       0       0       0       0       0       0       0       0       0       0       0       0
      Totals:         0      25       0       0       0       0       0       0       0       0       0       0       0       0       0       0       0
Total ram usage:       25 bytes
 Hardware stack levels used:    1
 Hardware stack levels required when called:    8
 This function calls:
		_CalcIPChecksum
		_MACPutArray
		_MACPutHeader
		_SwapIPHeader
 This function is called by:
		_ICMPProcess
		_UDPFlush
 This function uses a non-reentrant model


 *************** function _SwapIPHeader *****************
 Defined at:
		line 260 in file "../framework/tcpip/src/ip.c"
 Parameters:    Size  Location     Type
  h               1    wreg     PTR struct _IP_HEADER
		 -> IPPutHeader@header(20), IPGetHeader@header(20), 
 Auto vars:     Size  Location     Type
  h               1   32[COMRAM] PTR struct _IP_HEADER
		 -> IPPutHeader@header(20), IPGetHeader@header(20), 
 Return value:  Size  Location     Type
		None               void
 Registers used:
		wreg, fsr2l, fsr2h, status,2, status,0, cstack
 Tracked objects:
		On entry : 
		On exit  : 
		Unchanged: 
 Data sizes:     COMRAM   BANK0   BANK1   BANK2   BANK3   BANK4   BANK5   BANK6   BANK7   BANK8   BANK9  BANK10  BANK11  BANK12  BANK13  BANK14  BANK15
      Params:         0       0       0       0       0       0       0       0       0       0       0       0       0       0       0       0       0
      Locals:         1       0       0       0       0       0       0       0       0       0       0       0       0       0       0       0       0
      Temps:          0       0       0       0       0       0       0       0       0       0       0       0       0       0       0       0       0
      Totals:         1       0       0       0       0       0       0       0       0       0       0       0       0       0       0       0       0
Total ram usage:        1 bytes
 Hardware stack levels used:    1
 Hardware stack levels required when called:    7
 This function calls:
		_swaps
 This function is called by:
		_IPGetHeader
		_IPPutHeader
 This function uses a non-reentrant model


 *************** function _CalcIPChecksum *****************
 Defined at:
		line 1100 in file "../framework/tcpip/src/common/helpers.c"
 Parameters:    Size  Location     Type
  buffer          1    wreg     PTR unsigned char 
		 -> UDPProcess@pseudoHeader(12), UDPFlush@pseudoHeader(12), IPPutHeader@header(20), 
  count           2   27[COMRAM] unsigned int 
 Auto vars:     Size  Location     Type
  buffer          1   33[COMRAM] PTR unsigned char 
		 -> UDPProcess@pseudoHeader(12), UDPFlush@pseudoHeader(12), IPPutHeader@header(20), 
  sum             4   35[COMRAM] struct .
  i               2   31[COMRAM] unsigned int 
  val             1   34[COMRAM] PTR unsigned int 
		 -> UDPProcess@pseudoHeader(12), UDPFlush@pseudoHeader(12), IPPutHeader@header(20), 
 Return value:  Size  Location     Type
                  2   27[COMRAM] unsigned int 
 Registers used:
		wreg, fsr2l, fsr2h, status,2, status,0
 Tracked objects:
		On entry : 
		On exit  : 
		Unchanged: 
 Data sizes:     COMRAM   BANK0   BANK1   BANK2   BANK3   BANK4   BANK5   BANK6   BANK7   BANK8   BANK9  BANK10  BANK11  BANK12  BANK13  BANK14  BANK15
      Params:         2       0       0       0       0       0       0       0       0       0       0       0       0       0       0       0       0
      Locals:         8       0       0       0       0       0       0       0       0       0       0       0       0       0       0       0       0
      Temps:          2       0       0       0       0       0       0       0       0       0       0       0       0       0       0       0       0
      Totals:        12       0       0       0       0       0       0       0       0       0       0       0       0       0       0       0       0
Total ram usage:       12 bytes
 Hardware stack levels used:    1
 Hardware stack levels required when called:    6
 This function calls:
		Nothing
 This function is called by:
		_IPPutHeader
		_UDPFlush
		_UDPProcess
 This function uses a non-reentrant model


 *************** function _CalcIPBufferChecksum *****************
 Defined at:
		line 785 in file "../framework/tcpip/src/eth97j60.c"
 Parameters:    Size  Location     Type
  len             2   34[COMRAM] unsigned int 
 Auto vars:     Size  Location     Type
  DataBuffer     20    0[BANK0 ] unsigned char [20]
  Checksum        4   23[BANK0 ] struct .
  ChunkLen        2   27[BANK0 ] unsigned int 
  Start           2   20[BANK0 ] unsigned int 
  DataPtr         1   22[BANK0 ] PTR unsigned int 
		 -> CalcIPBufferChecksum@DataBuffer(20), 
 Return value:  Size  Location     Type
                  2   34[COMRAM] unsigned int 
 Registers used:
		wreg, fsr2l, fsr2h, status,2, status,0, cstack
 Tracked objects:
		On entry : 
		On exit  : 
		Unchanged: 
 Data sizes:     COMRAM   BANK0   BANK1   BANK2   BANK3   BANK4   BANK5   BANK6   BANK7   BANK8   BANK9  BANK10  BANK11  BANK12  BANK13  BANK14  BANK15
      Params:         2       0       0       0       0       0       0       0       0       0       0       0       0       0       0       0       0
      Locals:         0      29       0       0       0       0       0       0       0       0       0       0       0       0       0       0       0
      Temps:          2       0       0       0       0       0       0       0       0       0       0       0       0       0       0       0       0
      Totals:         4      29       0       0       0       0       0       0       0       0       0       0       0       0       0       0       0
Total ram usage:       33 bytes
 Hardware stack levels used:    1
 Hardware stack levels required when called:    7
 This function calls:
		_MACGetArray
 This function is called by:
		_UDPFlush
		_UDPProcess
		_MACCalcRxChecksum
 This function uses a non-reentrant model


 *************** function __DHCPReceive *****************
 Defined at:
		line 695 in file "../framework/tcpip/src/dhcp_client.c"
 Parameters:    Size  Location     Type
		None
 Auto vars:     Size  Location     Type
  tempServerID    4    7[BANK0 ] unsigned long 
  v               1   12[BANK0 ] unsigned char 
  i               1   11[BANK0 ] unsigned char 
  j               1    6[BANK0 ] unsigned char 
  type            1    5[BANK0 ] unsigned char 
  lbDone          1    4[BANK0 ] unsigned char 
 Return value:  Size  Location     Type
                  1    wreg      unsigned char 
 Registers used:
		wreg, fsr2l, fsr2h, status,2, status,0, cstack
 Tracked objects:
		On entry : 
		On exit  : 
		Unchanged: 
 Data sizes:     COMRAM   BANK0   BANK1   BANK2   BANK3   BANK4   BANK5   BANK6   BANK7   BANK8   BANK9  BANK10  BANK11  BANK12  BANK13  BANK14  BANK15
      Params:         0       0       0       0       0       0       0       0       0       0       0       0       0       0       0       0       0
      Locals:         0       9       0       0       0       0       0       0       0       0       0       0       0       0       0       0       0
      Temps:          0       4       0       0       0       0       0       0       0       0       0       0       0       0       0       0       0
      Totals:         0      13       0       0       0       0       0       0       0       0       0       0       0       0       0       0       0
Total ram usage:       13 bytes
 Hardware stack levels used:    1
 Hardware stack levels required when called:    9
 This function calls:
		_UDPDiscard
		_UDPGet
		_UDPGetArray
		_UDPSetRxBuffer
 This function is called by:
		_DHCPTask
 This function uses a non-reentrant model


 *************** function _UDPGetArray *****************
 Defined at:
		line 1032 in file "../framework/tcpip/src/udp.c"
 Parameters:    Size  Location     Type
  cData           2   34[COMRAM] PTR unsigned char 
		 -> DHCPClient(32), m_messageBuffer(500), 
  wDataLen        2   36[COMRAM] unsigned int 
 Auto vars:     Size  Location     Type
  wBytesAvaila    2   38[COMRAM] unsigned int 
 Return value:  Size  Location     Type
                  2   34[COMRAM] unsigned int 
 Registers used:
		wreg, fsr2l, fsr2h, status,2, status,0, cstack
 Tracked objects:
		On entry : 
		On exit  : 
		Unchanged: 
 Data sizes:     COMRAM   BANK0   BANK1   BANK2   BANK3   BANK4   BANK5   BANK6   BANK7   BANK8   BANK9  BANK10  BANK11  BANK12  BANK13  BANK14  BANK15
      Params:         4       0       0       0       0       0       0       0       0       0       0       0       0       0       0       0       0
      Locals:         2       0       0       0       0       0       0       0       0       0       0       0       0       0       0       0       0
      Temps:          0       0       0       0       0       0       0       0       0       0       0       0       0       0       0       0       0
      Totals:         6       0       0       0       0       0       0       0       0       0       0       0       0       0       0       0       0
Total ram usage:        6 bytes
 Hardware stack levels used:    1
 Hardware stack levels required when called:    7
 This function calls:
		_MACGetArray
 This function is called by:
		_HandleConnectionResponse
		_HandleConfigData
		_HandleReceivedBytes
		__DHCPReceive
 This function uses a non-reentrant model


 *************** function _UDPGet *****************
 Defined at:
		line 993 in file "../framework/tcpip/src/udp.c"
 Parameters:    Size  Location     Type
  v               1    wreg     PTR unsigned char 
		 -> _DHCPReceive@tempServerID(4), _DHCPReceive@j(1), _DHCPReceive@v(1), _DHCPReceive@type(1), 
		 -> DHCPClient.dwLeaseTime(4), DHCPClient(32), 
 Auto vars:     Size  Location     Type
  v               1   27[COMRAM] PTR unsigned char 
		 -> _DHCPReceive@tempServerID(4), _DHCPReceive@j(1), _DHCPReceive@v(1), _DHCPReceive@type(1), 
		 -> DHCPClient.dwLeaseTime(4), DHCPClient(32), 
 Return value:  Size  Location     Type
                  1    wreg      unsigned char 
 Registers used:
		wreg, fsr2l, fsr2h, status,2, status,0, cstack
 Tracked objects:
		On entry : 
		On exit  : 
		Unchanged: 
 Data sizes:     COMRAM   BANK0   BANK1   BANK2   BANK3   BANK4   BANK5   BANK6   BANK7   BANK8   BANK9  BANK10  BANK11  BANK12  BANK13  BANK14  BANK15
      Params:         0       0       0       0       0       0       0       0       0       0       0       0       0       0       0       0       0
      Locals:         1       0       0       0       0       0       0       0       0       0       0       0       0       0       0       0       0
      Temps:          0       0       0       0       0       0       0       0       0       0       0       0       0       0       0       0       0
      Totals:         1       0       0       0       0       0       0       0       0       0       0       0       0       0       0       0       0
Total ram usage:        1 bytes
 Hardware stack levels used:    1
 Hardware stack levels required when called:    7
 This function calls:
		_MACGet
 This function is called by:
		__DHCPReceive
 This function uses a non-reentrant model


 *************** function _MACGet *****************
 Defined at:
		line 984 in file "../framework/tcpip/src/eth97j60.c"
 Parameters:    Size  Location     Type
		None
 Auto vars:     Size  Location     Type
		None
 Return value:  Size  Location     Type
                  1    wreg      unsigned char 
 Registers used:
		wreg
 Tracked objects:
		On entry : 
		On exit  : 
		Unchanged: 
 Data sizes:     COMRAM   BANK0   BANK1   BANK2   BANK3   BANK4   BANK5   BANK6   BANK7   BANK8   BANK9  BANK10  BANK11  BANK12  BANK13  BANK14  BANK15
      Params:         0       0       0       0       0       0       0       0       0       0       0       0       0       0       0       0       0
      Locals:         0       0       0       0       0       0       0       0       0       0       0       0       0       0       0       0       0
      Temps:          0       0       0       0       0       0       0       0       0       0       0       0       0       0       0       0       0
      Totals:         0       0       0       0       0       0       0       0       0       0       0       0       0       0       0       0       0
Total ram usage:        0 bytes
 Hardware stack levels used:    1
 Hardware stack levels required when called:    6
 This function calls:
		Nothing
 This function is called by:
		_UDPGet
		_MACMemCopyAsync
 This function uses a non-reentrant model


 *************** function _UDPDiscard *****************
 Defined at:
		line 1076 in file "../framework/tcpip/src/udp.c"
 Parameters:    Size  Location     Type
		None
 Auto vars:     Size  Location     Type
		None
 Return value:  Size  Location     Type
		None               void
 Registers used:
		wreg, status,2, status,0, cstack
 Tracked objects:
		On entry : 
		On exit  : 
		Unchanged: 
 Data sizes:     COMRAM   BANK0   BANK1   BANK2   BANK3   BANK4   BANK5   BANK6   BANK7   BANK8   BANK9  BANK10  BANK11  BANK12  BANK13  BANK14  BANK15
      Params:         0       0       0       0       0       0       0       0       0       0       0       0       0       0       0       0       0
      Locals:         0       0       0       0       0       0       0       0       0       0       0       0       0       0       0       0       0
      Temps:          0       0       0       0       0       0       0       0       0       0       0       0       0       0       0       0       0
      Totals:         0       0       0       0       0       0       0       0       0       0       0       0       0       0       0       0       0
Total ram usage:        0 bytes
 Hardware stack levels used:    1
 Hardware stack levels required when called:    7
 This function calls:
		_MACDiscardRx
 This function is called by:
		_StackTask
		__DHCPReceive
 This function uses a non-reentrant model


 *************** function _UDPOpenEx *****************
 Defined at:
		line 179 in file "../framework/tcpip/src/udp.c"
 Parameters:    Size  Location     Type
  remoteHost      4    0[BANK0 ] unsigned long 
  remoteHostTy    1    4[BANK0 ] unsigned char 
  localPort       2    5[BANK0 ] unsigned int 
  remotePort      2    7[BANK0 ] unsigned int 
 Auto vars:     Size  Location     Type
  p               2   10[BANK0 ] PTR struct .
		 -> UDPSocketInfo(230), 
  s               1    9[BANK0 ] unsigned char 
 Return value:  Size  Location     Type
                  1    wreg      unsigned char 
 Registers used:
		wreg, fsr1l, fsr1h, fsr2l, fsr2h, status,2, status,0, tblptrl, tblptrh, tblptru, cstack
 Tracked objects:
		On entry : 
		On exit  : 
		Unchanged: 
 Data sizes:     COMRAM   BANK0   BANK1   BANK2   BANK3   BANK4   BANK5   BANK6   BANK7   BANK8   BANK9  BANK10  BANK11  BANK12  BANK13  BANK14  BANK15
      Params:         0       9       0       0       0       0       0       0       0       0       0       0       0       0       0       0       0
      Locals:         0       3       0       0       0       0       0       0       0       0       0       0       0       0       0       0       0
      Temps:          2       0       0       0       0       0       0       0       0       0       0       0       0       0       0       0       0
      Totals:         2      12       0       0       0       0       0       0       0       0       0       0       0       0       0       0       0
Total ram usage:       14 bytes
 Hardware stack levels used:    1
 Hardware stack levels required when called:    7
 This function calls:
		_memcpy
		_memset
 This function is called by:
		_OpenUDPsocket
		_DHCPTask
 This function uses a non-reentrant model


 *************** function _memset *****************
 Defined at:
		line 8 in file "C:\Program Files (x86)\Microchip\xc8\v1.35\sources\common\memset.c"
 Parameters:    Size  Location     Type
  p1              2   27[COMRAM] PTR void 
		 -> UDPSocketInfo.remote(10), UDPSocketInfo(230), LCDText(33), CheckKeypad@buff(8), 
		 -> m_NBSNodeInfo(10), 
  c               2   29[COMRAM] int 
  n               2   31[COMRAM] unsigned int 
 Auto vars:     Size  Location     Type
  p               2   33[COMRAM] PTR unsigned char 
		 -> UDPSocketInfo.remote(10), UDPSocketInfo(230), LCDText(33), CheckKeypad@buff(8), 
		 -> m_NBSNodeInfo(10), 
 Return value:  Size  Location     Type
                  2   27[COMRAM] PTR void 
 Registers used:
		wreg, fsr2l, fsr2h, status,2, status,0
 Tracked objects:
		On entry : 
		On exit  : 
		Unchanged: 
 Data sizes:     COMRAM   BANK0   BANK1   BANK2   BANK3   BANK4   BANK5   BANK6   BANK7   BANK8   BANK9  BANK10  BANK11  BANK12  BANK13  BANK14  BANK15
      Params:         6       0       0       0       0       0       0       0       0       0       0       0       0       0       0       0       0
      Locals:         2       0       0       0       0       0       0       0       0       0       0       0       0       0       0       0       0
      Temps:          0       0       0       0       0       0       0       0       0       0       0       0       0       0       0       0       0
      Totals:         8       0       0       0       0       0       0       0       0       0       0       0       0       0       0       0       0
Total ram usage:        8 bytes
 Hardware stack levels used:    1
 Hardware stack levels required when called:    6
 This function calls:
		Nothing
 This function is called by:
		_OpenUDPsocket
		_CheckKeypad
		_DHCPTask
		_UDPOpenEx
 This function uses a non-reentrant model


 *************** function _UDPIsPutReady *****************
 Defined at:
		line 624 in file "../framework/tcpip/src/udp.c"
 Parameters:    Size  Location     Type
  s               1    wreg     unsigned char 
 Auto vars:     Size  Location     Type
  s               1   38[COMRAM] unsigned char 
 Return value:  Size  Location     Type
                  2   36[COMRAM] unsigned int 
 Registers used:
		wreg, fsr2l, fsr2h, status,2, status,0, cstack
 Tracked objects:
		On entry : 
		On exit  : 
		Unchanged: 
 Data sizes:     COMRAM   BANK0   BANK1   BANK2   BANK3   BANK4   BANK5   BANK6   BANK7   BANK8   BANK9  BANK10  BANK11  BANK12  BANK13  BANK14  BANK15
      Params:         2       0       0       0       0       0       0       0       0       0       0       0       0       0       0       0       0
      Locals:         1       0       0       0       0       0       0       0       0       0       0       0       0       0       0       0       0
      Temps:          0       0       0       0       0       0       0       0       0       0       0       0       0       0       0       0       0
      Totals:         3       0       0       0       0       0       0       0       0       0       0       0       0       0       0       0       0
Total ram usage:        3 bytes
 Hardware stack levels used:    1
 Hardware stack levels required when called:   10
 This function calls:
		_MACIsTxReady
		_UDPSetTxBuffer
 This function is called by:
		_SendUDPMessage
		_NDCFSM
		_DHCPTask
 This function uses a non-reentrant model


 *************** function _UDPSetTxBuffer *****************
 Defined at:
		line 563 in file "../framework/tcpip/src/udp.c"
 Parameters:    Size  Location     Type
  wOffset         2   31[COMRAM] unsigned int 
 Auto vars:     Size  Location     Type
		None
 Return value:  Size  Location     Type
		None               void
 Registers used:
		wreg, status,2, status,0, cstack
 Tracked objects:
		On entry : 
		On exit  : 
		Unchanged: 
 Data sizes:     COMRAM   BANK0   BANK1   BANK2   BANK3   BANK4   BANK5   BANK6   BANK7   BANK8   BANK9  BANK10  BANK11  BANK12  BANK13  BANK14  BANK15
      Params:         2       0       0       0       0       0       0       0       0       0       0       0       0       0       0       0       0
      Locals:         0       0       0       0       0       0       0       0       0       0       0       0       0       0       0       0       0
      Temps:          0       0       0       0       0       0       0       0       0       0       0       0       0       0       0       0       0
      Totals:         2       0       0       0       0       0       0       0       0       0       0       0       0       0       0       0       0
Total ram usage:        2 bytes
 Hardware stack levels used:    1
 Hardware stack levels required when called:    7
 This function calls:
		_MACSetWritePtr
 This function is called by:
		_UDPIsPutReady
 This function uses a non-reentrant model


 *************** function _UDPIsGetReady *****************
 Defined at:
		line 955 in file "../framework/tcpip/src/udp.c"
 Parameters:    Size  Location     Type
  s               1    wreg     unsigned char 
 Auto vars:     Size  Location     Type
  s               1   39[COMRAM] unsigned char 
 Return value:  Size  Location     Type
                  2   37[COMRAM] unsigned int 
 Registers used:
		wreg, status,2, status,0, cstack
 Tracked objects:
		On entry : 
		On exit  : 
		Unchanged: 
 Data sizes:     COMRAM   BANK0   BANK1   BANK2   BANK3   BANK4   BANK5   BANK6   BANK7   BANK8   BANK9  BANK10  BANK11  BANK12  BANK13  BANK14  BANK15
      Params:         2       0       0       0       0       0       0       0       0       0       0       0       0       0       0       0       0
      Locals:         1       0       0       0       0       0       0       0       0       0       0       0       0       0       0       0       0
      Temps:          0       0       0       0       0       0       0       0       0       0       0       0       0       0       0       0       0
      Totals:         3       0       0       0       0       0       0       0       0       0       0       0       0       0       0       0       0
Total ram usage:        3 bytes
 Hardware stack levels used:    1
 Hardware stack levels required when called:    9
 This function calls:
		_UDPSetRxBuffer
 This function is called by:
		_NDCFSM
		_DHCPTask
 This function uses a non-reentrant model


 *************** function _UDPSetRxBuffer *****************
 Defined at:
		line 592 in file "../framework/tcpip/src/udp.c"
 Parameters:    Size  Location     Type
  wOffset         2   35[COMRAM] unsigned int 
 Auto vars:     Size  Location     Type
		None
 Return value:  Size  Location     Type
		None               void
 Registers used:
		wreg, status,2, status,0, cstack
 Tracked objects:
		On entry : 
		On exit  : 
		Unchanged: 
 Data sizes:     COMRAM   BANK0   BANK1   BANK2   BANK3   BANK4   BANK5   BANK6   BANK7   BANK8   BANK9  BANK10  BANK11  BANK12  BANK13  BANK14  BANK15
      Params:         2       0       0       0       0       0       0       0       0       0       0       0       0       0       0       0       0
      Locals:         0       0       0       0       0       0       0       0       0       0       0       0       0       0       0       0       0
      Temps:          0       0       0       0       0       0       0       0       0       0       0       0       0       0       0       0       0
      Totals:         2       0       0       0       0       0       0       0       0       0       0       0       0       0       0       0       0
Total ram usage:        2 bytes
 Hardware stack levels used:    1
 Hardware stack levels required when called:    8
 This function calls:
		_IPSetRxBuffer
 This function is called by:
		__DHCPReceive
		_UDPIsGetReady
 This function uses a non-reentrant model


 *************** function _IPSetRxBuffer *****************
 Defined at:
		line 255 in file "../framework/tcpip/src/ip.c"
 Parameters:    Size  Location     Type
  Offset          2   33[COMRAM] unsigned int 
 Auto vars:     Size  Location     Type
		None
 Return value:  Size  Location     Type
		None               void
 Registers used:
		wreg, status,2, status,0, cstack
 Tracked objects:
		On entry : 
		On exit  : 
		Unchanged: 
 Data sizes:     COMRAM   BANK0   BANK1   BANK2   BANK3   BANK4   BANK5   BANK6   BANK7   BANK8   BANK9  BANK10  BANK11  BANK12  BANK13  BANK14  BANK15
      Params:         2       0       0       0       0       0       0       0       0       0       0       0       0       0       0       0       0
      Locals:         0       0       0       0       0       0       0       0       0       0       0       0       0       0       0       0       0
      Temps:          0       0       0       0       0       0       0       0       0       0       0       0       0       0       0       0       0
      Totals:         2       0       0       0       0       0       0       0       0       0       0       0       0       0       0       0       0
Total ram usage:        2 bytes
 Hardware stack levels used:    1
 Hardware stack levels required when called:    7
 This function calls:
		_MACSetReadPtrInRx
 This function is called by:
		_UDPSetRxBuffer
		_UDPProcess
 This function uses a non-reentrant model


 *************** function _MACSetReadPtrInRx *****************
 Defined at:
		line 576 in file "../framework/tcpip/src/eth97j60.c"
 Parameters:    Size  Location     Type
  offset          2   27[COMRAM] unsigned int 
 Auto vars:     Size  Location     Type
  ReadPT          2   31[COMRAM] struct .
 Return value:  Size  Location     Type
		None               void
 Registers used:
		wreg, status,2, status,0
 Tracked objects:
		On entry : 
		On exit  : 
		Unchanged: 
 Data sizes:     COMRAM   BANK0   BANK1   BANK2   BANK3   BANK4   BANK5   BANK6   BANK7   BANK8   BANK9  BANK10  BANK11  BANK12  BANK13  BANK14  BANK15
      Params:         2       0       0       0       0       0       0       0       0       0       0       0       0       0       0       0       0
      Locals:         2       0       0       0       0       0       0       0       0       0       0       0       0       0       0       0       0
      Temps:          2       0       0       0       0       0       0       0       0       0       0       0       0       0       0       0       0
      Totals:         6       0       0       0       0       0       0       0       0       0       0       0       0       0       0       0       0
Total ram usage:        6 bytes
 Hardware stack levels used:    1
 Hardware stack levels required when called:    6
 This function calls:
		Nothing
 This function is called by:
		_IPGetHeader
		_IPSetRxBuffer
 This function uses a non-reentrant model


 *************** function _MACIsLinked *****************
 Defined at:
		line 220 in file "../framework/tcpip/src/eth97j60.c"
 Parameters:    Size  Location     Type
		None
 Auto vars:     Size  Location     Type
		None
 Return value:  Size  Location     Type
                  1    wreg      unsigned char 
 Registers used:
		wreg, fsr2l, fsr2h, status,2, cstack
 Tracked objects:
		On entry : 
		On exit  : 
		Unchanged: 
 Data sizes:     COMRAM   BANK0   BANK1   BANK2   BANK3   BANK4   BANK5   BANK6   BANK7   BANK8   BANK9  BANK10  BANK11  BANK12  BANK13  BANK14  BANK15
      Params:         0       0       0       0       0       0       0       0       0       0       0       0       0       0       0       0       0
      Locals:         0       0       0       0       0       0       0       0       0       0       0       0       0       0       0       0       0
      Temps:          0       0       0       0       0       0       0       0       0       0       0       0       0       0       0       0       0
      Totals:         0       0       0       0       0       0       0       0       0       0       0       0       0       0       0       0       0
Total ram usage:        0 bytes
 Hardware stack levels used:    1
 Hardware stack levels required when called:    7
 This function calls:
		_ReadPHYReg
 This function is called by:
		_StackTask
		_DHCPTask
		_main
 This function uses a non-reentrant model


 *************** function _ReadPHYReg *****************
 Defined at:
		line 1146 in file "../framework/tcpip/src/eth97j60.c"
 Parameters:    Size  Location     Type
  Register        1    wreg     unsigned char 
 Auto vars:     Size  Location     Type
  Register        1   29[COMRAM] unsigned char 
  Result          2   30[COMRAM] struct .
 Return value:  Size  Location     Type
                  2   27[COMRAM] struct .
 Registers used:
		wreg, status,2
 Tracked objects:
		On entry : 
		On exit  : 
		Unchanged: 
 Data sizes:     COMRAM   BANK0   BANK1   BANK2   BANK3   BANK4   BANK5   BANK6   BANK7   BANK8   BANK9  BANK10  BANK11  BANK12  BANK13  BANK14  BANK15
      Params:         2       0       0       0       0       0       0       0       0       0       0       0       0       0       0       0       0
      Locals:         3       0       0       0       0       0       0       0       0       0       0       0       0       0       0       0       0
      Temps:          0       0       0       0       0       0       0       0       0       0       0       0       0       0       0       0       0
      Totals:         5       0       0       0       0       0       0       0       0       0       0       0       0       0       0       0       0
Total ram usage:        5 bytes
 Hardware stack levels used:    1
 Hardware stack levels required when called:    6
 This function calls:
		Nothing
 This function is called by:
		_MACIsLinked
 This function uses a non-reentrant model


 *************** function _LFSRRand *****************
 Defined at:
		line 144 in file "../framework/tcpip/src/common/helpers.c"
 Parameters:    Size  Location     Type
		None
 Auto vars:     Size  Location     Type
  i               1   29[COMRAM] unsigned char 
 Return value:  Size  Location     Type
                  2   27[COMRAM] unsigned int 
 Registers used:
		wreg, status,2, status,0
 Tracked objects:
		On entry : 
		On exit  : 
		Unchanged: 
 Data sizes:     COMRAM   BANK0   BANK1   BANK2   BANK3   BANK4   BANK5   BANK6   BANK7   BANK8   BANK9  BANK10  BANK11  BANK12  BANK13  BANK14  BANK15
      Params:         2       0       0       0       0       0       0       0       0       0       0       0       0       0       0       0       0
      Locals:         1       0       0       0       0       0       0       0       0       0       0       0       0       0       0       0       0
      Temps:          0      16       0       0       0       0       0       0       0       0       0       0       0       0       0       0       0
      Totals:         3      16       0       0       0       0       0       0       0       0       0       0       0       0       0       0       0
Total ram usage:       19 bytes
 Hardware stack levels used:    1
 Hardware stack levels required when called:    6
 This function calls:
		Nothing
 This function is called by:
		_LFSRSeedRand
		_GenerateRandomDWORD
		_DHCPTask
 This function uses a non-reentrant model


 *************** function _DHCPIsBound *****************
 Defined at:
		line 308 in file "../framework/tcpip/src/dhcp_client.c"
 Parameters:    Size  Location     Type
  vInterface      1    wreg     unsigned char 
 Auto vars:     Size  Location     Type
  vInterface      1    0[COMRAM] unsigned char 
 Return value:  Size  Location     Type
                  1    wreg      unsigned char 
 Registers used:
		wreg
 Tracked objects:
		On entry : 
		On exit  : 
		Unchanged: 
 Data sizes:     COMRAM   BANK0   BANK1   BANK2   BANK3   BANK4   BANK5   BANK6   BANK7   BANK8   BANK9  BANK10  BANK11  BANK12  BANK13  BANK14  BANK15
      Params:         0       0       0       0       0       0       0       0       0       0       0       0       0       0       0       0       0
      Locals:         0       0       0       0       0       0       0       0       0       0       0       0       0       0       0       0       0
      Temps:          0       0       0       0       0       0       0       0       0       0       0       0       0       0       0       0       0
      Totals:         0       0       0       0       0       0       0       0       0       0       0       0       0       0       0       0       0
Total ram usage:        0 bytes
 Hardware stack levels used:    1
 Hardware stack levels required when called:    6
 This function calls:
		Nothing
 This function is called by:
		_StackTask
		_main
 This function uses a non-reentrant model


 *************** function _DHCPInit *****************
 Defined at:
		line 156 in file "../framework/tcpip/src/dhcp_client.c"
 Parameters:    Size  Location     Type
  vInterface      1    wreg     unsigned char 
 Auto vars:     Size  Location     Type
  vInterface      1    0[COMRAM] unsigned char 
  i               1   28[COMRAM] unsigned char 
 Return value:  Size  Location     Type
		None               void
 Registers used:
		wreg, fsr2l, fsr2h, status,2, status,0, prodl, prodh, cstack
 Tracked objects:
		On entry : 
		On exit  : 
		Unchanged: 
 Data sizes:     COMRAM   BANK0   BANK1   BANK2   BANK3   BANK4   BANK5   BANK6   BANK7   BANK8   BANK9  BANK10  BANK11  BANK12  BANK13  BANK14  BANK15
      Params:         0       0       0       0       0       0       0       0       0       0       0       0       0       0       0       0       0
      Locals:         1       0       0       0       0       0       0       0       0       0       0       0       0       0       0       0       0
      Temps:          0       0       0       0       0       0       0       0       0       0       0       0       0       0       0       0       0
      Totals:         1       0       0       0       0       0       0       0       0       0       0       0       0       0       0       0       0
Total ram usage:        1 bytes
 Hardware stack levels used:    1
 Hardware stack levels required when called:    7
 This function calls:
		_UDPClose
 This function is called by:
		_StackInit
		_StackTask
 This function uses a non-reentrant model


 *************** function _ARPProcess *****************
 Defined at:
		line 384 in file "../framework/tcpip/src/arp.c"
 Parameters:    Size  Location     Type
		None
 Auto vars:     Size  Location     Type
  packet         28    0[BANK0 ] struct .
 Return value:  Size  Location     Type
                  1    wreg      unsigned char 
 Registers used:
		wreg, fsr1l, fsr1h, fsr2l, fsr2h, status,2, status,0, tblptrl, tblptrh, tblptru, cstack
 Tracked objects:
		On entry : 
		On exit  : 
		Unchanged: 
 Data sizes:     COMRAM   BANK0   BANK1   BANK2   BANK3   BANK4   BANK5   BANK6   BANK7   BANK8   BANK9  BANK10  BANK11  BANK12  BANK13  BANK14  BANK15
      Params:         0       0       0       0       0       0       0       0       0       0       0       0       0       0       0       0       0
      Locals:         0      28       0       0       0       0       0       0       0       0       0       0       0       0       0       0       0
      Temps:          0       0       0       0       0       0       0       0       0       0       0       0       0       0       0       0       0
      Totals:         0      28       0       0       0       0       0       0       0       0       0       0       0       0       0       0       0
Total ram usage:       28 bytes
 Hardware stack levels used:    1
 Hardware stack levels required when called:   11
 This function calls:
		_ARPPut
		_MACDiscardRx
		_MACGetArray
		_SwapARPPacket
 This function is called by:
		_StackTask
 This function uses a non-reentrant model


 *************** function _MACGetArray *****************
 Defined at:
		line 1008 in file "../framework/tcpip/src/eth97j60.c"
 Parameters:    Size  Location     Type
  val             2   27[COMRAM] PTR unsigned char 
		 -> CalcIPBufferChecksum@DataBuffer(20), MACGetHeader@header(20), UDPProcess@h(8), IPGetHeader@header(20), 
		 -> ICMPProcess@dwVal(4), DHCPClient(32), ARPProcess@packet(28), m_messageBuffer(500), 
  len             2   29[COMRAM] unsigned int 
 Auto vars:     Size  Location     Type
  w               2   32[COMRAM] unsigned int 
  i               1   31[COMRAM] volatile unsigned char 
 Return value:  Size  Location     Type
                  2   27[COMRAM] unsigned int 
 Registers used:
		wreg, fsr2l, fsr2h, status,2, status,0
 Tracked objects:
		On entry : 
		On exit  : 
		Unchanged: 
 Data sizes:     COMRAM   BANK0   BANK1   BANK2   BANK3   BANK4   BANK5   BANK6   BANK7   BANK8   BANK9  BANK10  BANK11  BANK12  BANK13  BANK14  BANK15
      Params:         4       0       0       0       0       0       0       0       0       0       0       0       0       0       0       0       0
      Locals:         3       0       0       0       0       0       0       0       0       0       0       0       0       0       0       0       0
      Temps:          0       0       0       0       0       0       0       0       0       0       0       0       0       0       0       0       0
      Totals:         7       0       0       0       0       0       0       0       0       0       0       0       0       0       0       0       0
Total ram usage:        7 bytes
 Hardware stack levels used:    1
 Hardware stack levels required when called:    6
 This function calls:
		Nothing
 This function is called by:
		_ARPProcess
		_ICMPProcess
		_IPGetHeader
		_UDPGetArray
		_UDPProcess
		_MACGetHeader
		_CalcIPBufferChecksum
 This function uses a non-reentrant model


 *************** function _MACDiscardRx *****************
 Defined at:
		line 286 in file "../framework/tcpip/src/eth97j60.c"
 Parameters:    Size  Location     Type
		None
 Auto vars:     Size  Location     Type
  NewRXRDLocat    2   27[COMRAM] struct .
 Return value:  Size  Location     Type
		None               void
 Registers used:
		wreg, status,2, status,0
 Tracked objects:
		On entry : 
		On exit  : 
		Unchanged: 
 Data sizes:     COMRAM   BANK0   BANK1   BANK2   BANK3   BANK4   BANK5   BANK6   BANK7   BANK8   BANK9  BANK10  BANK11  BANK12  BANK13  BANK14  BANK15
      Params:         0       0       0       0       0       0       0       0       0       0       0       0       0       0       0       0       0
      Locals:         2       0       0       0       0       0       0       0       0       0       0       0       0       0       0       0       0
      Temps:          0       0       0       0       0       0       0       0       0       0       0       0       0       0       0       0       0
      Totals:         2       0       0       0       0       0       0       0       0       0       0       0       0       0       0       0       0
Total ram usage:        2 bytes
 Hardware stack levels used:    1
 Hardware stack levels required when called:    6
 This function calls:
		Nothing
 This function is called by:
		_ARPProcess
		_UDPDiscard
		_UDPProcess
		_MACGetHeader
 This function uses a non-reentrant model


 *************** function _ARPPut *****************
 Defined at:
		line 296 in file "../framework/tcpip/src/arp.c"
 Parameters:    Size  Location     Type
  packet          1    wreg     PTR struct .
		 -> ARPResolve@packet(28), ARPProcess@packet(28), ARPSendPkt@packet(28), 
 Auto vars:     Size  Location     Type
  packet          1   39[COMRAM] PTR struct .
		 -> ARPResolve@packet(28), ARPProcess@packet(28), ARPSendPkt@packet(28), 
 Return value:  Size  Location     Type
                  1    wreg      unsigned char 
 Registers used:
		wreg, fsr1l, fsr1h, fsr2l, fsr2h, status,2, status,0, tblptrl, tblptrh, tblptru, cstack
 Tracked objects:
		On entry : 
		On exit  : 
		Unchanged: 
 Data sizes:     COMRAM   BANK0   BANK1   BANK2   BANK3   BANK4   BANK5   BANK6   BANK7   BANK8   BANK9  BANK10  BANK11  BANK12  BANK13  BANK14  BANK15
      Params:         0       0       0       0       0       0       0       0       0       0       0       0       0       0       0       0       0
      Locals:         1       0       0       0       0       0       0       0       0       0       0       0       0       0       0       0       0
      Temps:          1       0       0       0       0       0       0       0       0       0       0       0       0       0       0       0       0
      Totals:         2       0       0       0       0       0       0       0       0       0       0       0       0       0       0       0       0
Total ram usage:        2 bytes
 Hardware stack levels used:    1
 Hardware stack levels required when called:   10
 This function calls:
		_MACFlush
		_MACIsTxReady
		_MACPutArray
		_MACPutHeader
		_MACSetWritePtr
		_SwapARPPacket
		_memcpy
 This function is called by:
		_ARPProcess
		_ARPResolve
 This function uses a non-reentrant model


 *************** function _SwapARPPacket *****************
 Defined at:
		line 643 in file "../framework/tcpip/src/arp.c"
 Parameters:    Size  Location     Type
  p               1    wreg     PTR struct .
		 -> ARPResolve@packet(28), ARPProcess@packet(28), ARPSendPkt@packet(28), 
 Auto vars:     Size  Location     Type
  p               1   32[COMRAM] PTR struct .
		 -> ARPResolve@packet(28), ARPProcess@packet(28), ARPSendPkt@packet(28), 
 Return value:  Size  Location     Type
		None               void
 Registers used:
		wreg, fsr2l, fsr2h, status,2, status,0, cstack
 Tracked objects:
		On entry : 
		On exit  : 
		Unchanged: 
 Data sizes:     COMRAM   BANK0   BANK1   BANK2   BANK3   BANK4   BANK5   BANK6   BANK7   BANK8   BANK9  BANK10  BANK11  BANK12  BANK13  BANK14  BANK15
      Params:         0       0       0       0       0       0       0       0       0       0       0       0       0       0       0       0       0
      Locals:         1       0       0       0       0       0       0       0       0       0       0       0       0       0       0       0       0
      Temps:          0       0       0       0       0       0       0       0       0       0       0       0       0       0       0       0       0
      Totals:         1       0       0       0       0       0       0       0       0       0       0       0       0       0       0       0       0
Total ram usage:        1 bytes
 Hardware stack levels used:    1
 Hardware stack levels required when called:    7
 This function calls:
		_swaps
 This function is called by:
		_ARPPut
		_ARPProcess
 This function uses a non-reentrant model


 *************** function _swaps *****************
 Defined at:
		line 1025 in file "../framework/tcpip/src/common/helpers.c"
 Parameters:    Size  Location     Type
  v               2   27[COMRAM] unsigned int 
 Auto vars:     Size  Location     Type
  t               2   30[COMRAM] struct .
  b               1   29[COMRAM] unsigned char 
 Return value:  Size  Location     Type
                  2   27[COMRAM] unsigned int 
 Registers used:
		None
 Tracked objects:
		On entry : 
		On exit  : 
		Unchanged: 
 Data sizes:     COMRAM   BANK0   BANK1   BANK2   BANK3   BANK4   BANK5   BANK6   BANK7   BANK8   BANK9  BANK10  BANK11  BANK12  BANK13  BANK14  BANK15
      Params:         2       0       0       0       0       0       0       0       0       0       0       0       0       0       0       0       0
      Locals:         3       0       0       0       0       0       0       0       0       0       0       0       0       0       0       0       0
      Temps:          0       0       0       0       0       0       0       0       0       0       0       0       0       0       0       0       0
      Totals:         5       0       0       0       0       0       0       0       0       0       0       0       0       0       0       0       0
Total ram usage:        5 bytes
 Hardware stack levels used:    1
 Hardware stack levels required when called:    6
 This function calls:
		Nothing
 This function is called by:
		_SwapARPPacket
		_SwapIPHeader
		_UDPFlush
		_UDPProcess
		_MACGetHeader
 This function uses a non-reentrant model


 *************** function _MACSetWritePtr *****************
 Defined at:
		line 610 in file "../framework/tcpip/src/eth97j60.c"
 Parameters:    Size  Location     Type
  address         2   27[COMRAM] unsigned short 
 Auto vars:     Size  Location     Type
  oldVal          2    0        unsigned int 
 Return value:  Size  Location     Type
                  2   27[COMRAM] unsigned short 
 Registers used:
		None
 Tracked objects:
		On entry : 
		On exit  : 
		Unchanged: 
 Data sizes:     COMRAM   BANK0   BANK1   BANK2   BANK3   BANK4   BANK5   BANK6   BANK7   BANK8   BANK9  BANK10  BANK11  BANK12  BANK13  BANK14  BANK15
      Params:         2       0       0       0       0       0       0       0       0       0       0       0       0       0       0       0       0
      Locals:         2       0       0       0       0       0       0       0       0       0       0       0       0       0       0       0       0
      Temps:          0       0       0       0       0       0       0       0       0       0       0       0       0       0       0       0       0
      Totals:         4       0       0       0       0       0       0       0       0       0       0       0       0       0       0       0       0
Total ram usage:        4 bytes
 Hardware stack levels used:    1
 Hardware stack levels required when called:    6
 This function calls:
		Nothing
 This function is called by:
		_ARPPut
		_ICMPProcess
		_UDPSetTxBuffer
		_UDPFlush
 This function uses a non-reentrant model


 *************** function _MACPutHeader *****************
 Defined at:
		line 485 in file "../framework/tcpip/src/eth97j60.c"
 Parameters:    Size  Location     Type
  remote          2   31[COMRAM] PTR struct .
		 -> UDPSocketInfo.remote(10), UDPSocketInfo(230), ARPResolve@packet(28), ARPProcess@packet(28), 
		 -> ARPSendPkt@packet(28), remoteNode(10), 
  type            1   33[COMRAM] unsigned char 
  dataLen         2   34[COMRAM] unsigned int 
 Auto vars:     Size  Location     Type
		None
 Return value:  Size  Location     Type
		None               void
 Registers used:
		wreg, fsr2l, fsr2h, status,2, status,0, cstack
 Tracked objects:
		On entry : 
		On exit  : 
		Unchanged: 
 Data sizes:     COMRAM   BANK0   BANK1   BANK2   BANK3   BANK4   BANK5   BANK6   BANK7   BANK8   BANK9  BANK10  BANK11  BANK12  BANK13  BANK14  BANK15
      Params:         5       0       0       0       0       0       0       0       0       0       0       0       0       0       0       0       0
      Locals:         2       0       0       0       0       0       0       0       0       0       0       0       0       0       0       0       0
      Temps:          0       0       0       0       0       0       0       0       0       0       0       0       0       0       0       0       0
      Totals:         7       0       0       0       0       0       0       0       0       0       0       0       0       0       0       0       0
Total ram usage:        7 bytes
 Hardware stack levels used:    1
 Hardware stack levels required when called:    7
 This function calls:
		_MACPut
		_MACPutArray
 This function is called by:
		_ARPPut
		_IPPutHeader
 This function uses a non-reentrant model


 *************** function _MACPutArray *****************
 Defined at:
		line 1087 in file "../framework/tcpip/src/eth97j60.c"
 Parameters:    Size  Location     Type
  val             2   27[COMRAM] PTR unsigned char 
		 -> UDPFlush@wChecksum(2), UDPFlush@h(8), IPPutHeader@header(20), ICMPProcess@dwVal(4), 
		 -> UDPSocketInfo.remote(10), UDPSocketInfo(230), DHCPClient(32), ARPResolve@packet(28), 
		 -> ARPProcess@packet(28), ARPSendPkt@packet(28), remoteNode(10), AppConfig(51), 
		 -> m_messageBuffer(500), 
  len             2   29[COMRAM] unsigned int 
 Auto vars:     Size  Location     Type
		None
 Return value:  Size  Location     Type
		None               void
 Registers used:
		wreg, fsr2l, fsr2h, status,2, status,0
 Tracked objects:
		On entry : 
		On exit  : 
		Unchanged: 
 Data sizes:     COMRAM   BANK0   BANK1   BANK2   BANK3   BANK4   BANK5   BANK6   BANK7   BANK8   BANK9  BANK10  BANK11  BANK12  BANK13  BANK14  BANK15
      Params:         4       0       0       0       0       0       0       0       0       0       0       0       0       0       0       0       0
      Locals:         0       0       0       0       0       0       0       0       0       0       0       0       0       0       0       0       0
      Temps:          0       0       0       0       0       0       0       0       0       0       0       0       0       0       0       0       0
      Totals:         4       0       0       0       0       0       0       0       0       0       0       0       0       0       0       0       0
Total ram usage:        4 bytes
 Hardware stack levels used:    1
 Hardware stack levels required when called:    6
 This function calls:
		Nothing
 This function is called by:
		_ARPPut
		_ICMPProcess
		_IPPutHeader
		_UDPPutArray
		_UDPFlush
		_MACPutHeader
 This function uses a non-reentrant model


 *************** function _MACPut *****************
 Defined at:
		line 1049 in file "../framework/tcpip/src/eth97j60.c"
 Parameters:    Size  Location     Type
  val             1    wreg     unsigned char 
 Auto vars:     Size  Location     Type
  val             1   27[COMRAM] unsigned char 
 Return value:  Size  Location     Type
		None               void
 Registers used:
		wreg
 Tracked objects:
		On entry : 
		On exit  : 
		Unchanged: 
 Data sizes:     COMRAM   BANK0   BANK1   BANK2   BANK3   BANK4   BANK5   BANK6   BANK7   BANK8   BANK9  BANK10  BANK11  BANK12  BANK13  BANK14  BANK15
      Params:         0       0       0       0       0       0       0       0       0       0       0       0       0       0       0       0       0
      Locals:         1       0       0       0       0       0       0       0       0       0       0       0       0       0       0       0       0
      Temps:          0       0       0       0       0       0       0       0       0       0       0       0       0       0       0       0       0
      Totals:         1       0       0       0       0       0       0       0       0       0       0       0       0       0       0       0       0
Total ram usage:        1 bytes
 Hardware stack levels used:    1
 Hardware stack levels required when called:    6
 This function calls:
		Nothing
 This function is called by:
		_UDPPut
		_MACInit
		_MACPutHeader
		_MACMemCopyAsync
 This function uses a non-reentrant model


 *************** function _MACIsTxReady *****************
 Defined at:
		line 250 in file "../framework/tcpip/src/eth97j60.c"
 Parameters:    Size  Location     Type
		None
 Auto vars:     Size  Location     Type
		None
 Return value:  Size  Location     Type
                  1    wreg      unsigned char 
 Registers used:
		wreg, fsr2l, fsr2h, status,2, status,0, cstack
 Tracked objects:
		On entry : 
		On exit  : 
		Unchanged: 
 Data sizes:     COMRAM   BANK0   BANK1   BANK2   BANK3   BANK4   BANK5   BANK6   BANK7   BANK8   BANK9  BANK10  BANK11  BANK12  BANK13  BANK14  BANK15
      Params:         0       0       0       0       0       0       0       0       0       0       0       0       0       0       0       0       0
      Locals:         0       0       0       0       0       0       0       0       0       0       0       0       0       0       0       0       0
      Temps:          0       0       0       0       0       0       0       0       0       0       0       0       0       0       0       0       0
      Totals:         0       0       0       0       0       0       0       0       0       0       0       0       0       0       0       0       0
Total ram usage:        0 bytes
 Hardware stack levels used:    1
 Hardware stack levels required when called:    9
 This function calls:
		_MACFlush
		_TickGet
 This function is called by:
		_ARPPut
		_ICMPProcess
		_UDPIsPutReady
 This function uses a non-reentrant model


 *************** function _MACFlush *****************
 Defined at:
		line 531 in file "../framework/tcpip/src/eth97j60.c"
 Parameters:    Size  Location     Type
		None
 Auto vars:     Size  Location     Type
  i               1   35[COMRAM] volatile unsigned char 
 Return value:  Size  Location     Type
		None               void
 Registers used:
		wreg, fsr2l, fsr2h, status,2, status,0, cstack
 Tracked objects:
		On entry : 
		On exit  : 
		Unchanged: 
 Data sizes:     COMRAM   BANK0   BANK1   BANK2   BANK3   BANK4   BANK5   BANK6   BANK7   BANK8   BANK9  BANK10  BANK11  BANK12  BANK13  BANK14  BANK15
      Params:         0       0       0       0       0       0       0       0       0       0       0       0       0       0       0       0       0
      Locals:         1       0       0       0       0       0       0       0       0       0       0       0       0       0       0       0       0
      Temps:          0       0       0       0       0       0       0       0       0       0       0       0       0       0       0       0       0
      Totals:         1       0       0       0       0       0       0       0       0       0       0       0       0       0       0       0       0
Total ram usage:        1 bytes
 Hardware stack levels used:    1
 Hardware stack levels required when called:    8
 This function calls:
		_TickGet
 This function is called by:
		_ARPPut
		_ICMPProcess
		_UDPFlush
		_MACIsTxReady
 This function uses a non-reentrant model


 *************** function _DelayMs *****************
 Defined at:
		line 46 in file "../framework/tcpip/src/common/delay.c"
 Parameters:    Size  Location     Type
  ms              2   27[COMRAM] unsigned int 
 Auto vars:     Size  Location     Type
  _dcnt           4   29[COMRAM] unsigned long 
  i               1   33[COMRAM] unsigned char 
 Return value:  Size  Location     Type
		None               void
 Registers used:
		wreg, status,2, status,0
 Tracked objects:
		On entry : 
		On exit  : 
		Unchanged: 
 Data sizes:     COMRAM   BANK0   BANK1   BANK2   BANK3   BANK4   BANK5   BANK6   BANK7   BANK8   BANK9  BANK10  BANK11  BANK12  BANK13  BANK14  BANK15
      Params:         2       0       0       0       0       0       0       0       0       0       0       0       0       0       0       0       0
      Locals:         5       0       0       0       0       0       0       0       0       0       0       0       0       0       0       0       0
      Temps:          0       0       0       0       0       0       0       0       0       0       0       0       0       0       0       0       0
      Totals:         7       0       0       0       0       0       0       0       0       0       0       0       0       0       0       0       0
Total ram usage:        7 bytes
 Hardware stack levels used:    1
 Hardware stack levels required when called:    6
 This function calls:
		Nothing
 This function is called by:
		_SendUDPMessage
 This function uses a non-reentrant model


 *************** function _GetWiegandCode *****************
 Defined at:
		line 107 in file "../src/InitRutines.c"
 Parameters:    Size  Location     Type
		None
 Auto vars:     Size  Location     Type
  tmp             4   31[COMRAM] unsigned long 
 Return value:  Size  Location     Type
                  4   27[COMRAM] unsigned long 
 Registers used:
		wreg, status,2, status,0
 Tracked objects:
		On entry : 
		On exit  : 
		Unchanged: 
 Data sizes:     COMRAM   BANK0   BANK1   BANK2   BANK3   BANK4   BANK5   BANK6   BANK7   BANK8   BANK9  BANK10  BANK11  BANK12  BANK13  BANK14  BANK15
      Params:         4       0       0       0       0       0       0       0       0       0       0       0       0       0       0       0       0
      Locals:         4       0       0       0       0       0       0       0       0       0       0       0       0       0       0       0       0
      Temps:          0       0       0       0       0       0       0       0       0       0       0       0       0       0       0       0       0
      Totals:         8       0       0       0       0       0       0       0       0       0       0       0       0       0       0       0       0
Total ram usage:        8 bytes
 Hardware stack levels used:    1
 Hardware stack levels required when called:    6
 This function calls:
		Nothing
 This function is called by:
		_CheckKeypad
		_HandleConfigData
 This function uses a non-reentrant model


 *************** function _CheckHeartBeatTimer *****************
 Defined at:
		line 249 in file "../src/NDC.c"
 Parameters:    Size  Location     Type
		None
 Auto vars:     Size  Location     Type
		None
 Return value:  Size  Location     Type
		None               void
 Registers used:
		wreg, fsr2l, fsr2h, status,2, status,0, prodl, prodh, cstack
 Tracked objects:
		On entry : 
		On exit  : 
		Unchanged: 
 Data sizes:     COMRAM   BANK0   BANK1   BANK2   BANK3   BANK4   BANK5   BANK6   BANK7   BANK8   BANK9  BANK10  BANK11  BANK12  BANK13  BANK14  BANK15
      Params:         0       0       0       0       0       0       0       0       0       0       0       0       0       0       0       0       0
      Locals:         0       0       0       0       0       0       0       0       0       0       0       0       0       0       0       0       0
      Temps:          4       0       0       0       0       0       0       0       0       0       0       0       0       0       0       0       0
      Totals:         4       0       0       0       0       0       0       0       0       0       0       0       0       0       0       0       0
Total ram usage:        4 bytes
 Hardware stack levels used:    1
 Hardware stack levels required when called:    8
 This function calls:
		_TickGet
		_UDPClose
 This function is called by:
		_NDCFSM
 This function uses a non-reentrant model


 *************** function _UDPClose *****************
 Defined at:
		line 530 in file "../framework/tcpip/src/udp.c"
 Parameters:    Size  Location     Type
  s               1    wreg     unsigned char 
 Auto vars:     Size  Location     Type
  s               1   27[COMRAM] unsigned char 
 Return value:  Size  Location     Type
		None               void
 Registers used:
		wreg, fsr2l, fsr2h, status,2, status,0, prodl, prodh
 Tracked objects:
		On entry : 
		On exit  : 
		Unchanged: 
 Data sizes:     COMRAM   BANK0   BANK1   BANK2   BANK3   BANK4   BANK5   BANK6   BANK7   BANK8   BANK9  BANK10  BANK11  BANK12  BANK13  BANK14  BANK15
      Params:         0       0       0       0       0       0       0       0       0       0       0       0       0       0       0       0       0
      Locals:         1       0       0       0       0       0       0       0       0       0       0       0       0       0       0       0       0
      Temps:          0       0       0       0       0       0       0       0       0       0       0       0       0       0       0       0       0
      Totals:         1       0       0       0       0       0       0       0       0       0       0       0       0       0       0       0       0
Total ram usage:        1 bytes
 Hardware stack levels used:    1
 Hardware stack levels required when called:    6
 This function calls:
		Nothing
 This function is called by:
		_NDCResetState
		_CheckHeartBeatTimer
		_HandleReceivedBytes
		_DHCPInit
		_DHCPDisable
		_DHCPTask
		_UDPInit
 This function uses a non-reentrant model


 *************** function _CheckFlashingLEDTimer *****************
 Defined at:
		line 205 in file "../src/NDC.c"
 Parameters:    Size  Location     Type
		None
 Auto vars:     Size  Location     Type
		None
 Return value:  Size  Location     Type
		None               void
 Registers used:
		wreg, fsr2l, fsr2h, status,2, status,0, cstack
 Tracked objects:
		On entry : 
		On exit  : 
		Unchanged: 
 Data sizes:     COMRAM   BANK0   BANK1   BANK2   BANK3   BANK4   BANK5   BANK6   BANK7   BANK8   BANK9  BANK10  BANK11  BANK12  BANK13  BANK14  BANK15
      Params:         0       0       0       0       0       0       0       0       0       0       0       0       0       0       0       0       0
      Locals:         0       0       0       0       0       0       0       0       0       0       0       0       0       0       0       0       0
      Temps:          4       0       0       0       0       0       0       0       0       0       0       0       0       0       0       0       0
      Totals:         4       0       0       0       0       0       0       0       0       0       0       0       0       0       0       0       0
Total ram usage:        4 bytes
 Hardware stack levels used:    1
 Hardware stack levels required when called:    8
 This function calls:
		_TickGet
 This function is called by:
		_NDCFSM
 This function uses a non-reentrant model


 *************** function _CheckDoorTimer *****************
 Defined at:
		line 181 in file "../src/NDC.c"
 Parameters:    Size  Location     Type
		None
 Auto vars:     Size  Location     Type
		None
 Return value:  Size  Location     Type
                  1    wreg      unsigned char 
 Registers used:
		wreg, status,2, status,0
 Tracked objects:
		On entry : 
		On exit  : 
		Unchanged: 
 Data sizes:     COMRAM   BANK0   BANK1   BANK2   BANK3   BANK4   BANK5   BANK6   BANK7   BANK8   BANK9  BANK10  BANK11  BANK12  BANK13  BANK14  BANK15
      Params:         0       0       0       0       0       0       0       0       0       0       0       0       0       0       0       0       0
      Locals:         0       0       0       0       0       0       0       0       0       0       0       0       0       0       0       0       0
      Temps:          0       0       0       0       0       0       0       0       0       0       0       0       0       0       0       0       0
      Totals:         0       0       0       0       0       0       0       0       0       0       0       0       0       0       0       0       0
Total ram usage:        0 bytes
 Hardware stack levels used:    1
 Hardware stack levels required when called:    6
 This function calls:
		Nothing
 This function is called by:
		_NDCFSM
 This function uses a non-reentrant model


 *************** function _CheckConnectionResponseWaitTimer *****************
 Defined at:
		line 375 in file "../src/NDC.c"
 Parameters:    Size  Location     Type
		None
 Auto vars:     Size  Location     Type
		None
 Return value:  Size  Location     Type
		None               void
 Registers used:
		wreg, fsr2l, fsr2h, status,2, status,0, cstack
 Tracked objects:
		On entry : 
		On exit  : 
		Unchanged: 
 Data sizes:     COMRAM   BANK0   BANK1   BANK2   BANK3   BANK4   BANK5   BANK6   BANK7   BANK8   BANK9  BANK10  BANK11  BANK12  BANK13  BANK14  BANK15
      Params:         0       0       0       0       0       0       0       0       0       0       0       0       0       0       0       0       0
      Locals:         0       0       0       0       0       0       0       0       0       0       0       0       0       0       0       0       0
      Temps:          4       0       0       0       0       0       0       0       0       0       0       0       0       0       0       0       0
      Totals:         4       0       0       0       0       0       0       0       0       0       0       0       0       0       0       0       0
Total ram usage:        4 bytes
 Hardware stack levels used:    1
 Hardware stack levels required when called:    8
 This function calls:
		_TickGet
 This function is called by:
		_NDCFSM
 This function uses a non-reentrant model


 *************** function _CheckConfigDataWaitTimer *****************
 Defined at:
		line 382 in file "../src/NDC.c"
 Parameters:    Size  Location     Type
		None
 Auto vars:     Size  Location     Type
		None
 Return value:  Size  Location     Type
		None               void
 Registers used:
		wreg, fsr2l, fsr2h, status,2, status,0, cstack
 Tracked objects:
		On entry : 
		On exit  : 
		Unchanged: 
 Data sizes:     COMRAM   BANK0   BANK1   BANK2   BANK3   BANK4   BANK5   BANK6   BANK7   BANK8   BANK9  BANK10  BANK11  BANK12  BANK13  BANK14  BANK15
      Params:         0       0       0       0       0       0       0       0       0       0       0       0       0       0       0       0       0
      Locals:         0       0       0       0       0       0       0       0       0       0       0       0       0       0       0       0       0
      Temps:          4       0       0       0       0       0       0       0       0       0       0       0       0       0       0       0       0
      Totals:         4       0       0       0       0       0       0       0       0       0       0       0       0       0       0       0       0
Total ram usage:        4 bytes
 Hardware stack levels used:    1
 Hardware stack levels required when called:    8
 This function calls:
		_TickGet
 This function is called by:
		_NDCFSM
 This function uses a non-reentrant model


 *************** function _TickGet *****************
 Defined at:
		line 249 in file "../framework/tcpip/src/common/tick.c"
 Parameters:    Size  Location     Type
		None
 Auto vars:     Size  Location     Type
  dw              4   31[COMRAM] unsigned long 
 Return value:  Size  Location     Type
                  4   27[COMRAM] unsigned long 
 Registers used:
		fsr2l, fsr2h, cstack
 Tracked objects:
		On entry : 
		On exit  : 
		Unchanged: 
 Data sizes:     COMRAM   BANK0   BANK1   BANK2   BANK3   BANK4   BANK5   BANK6   BANK7   BANK8   BANK9  BANK10  BANK11  BANK12  BANK13  BANK14  BANK15
      Params:         4       0       0       0       0       0       0       0       0       0       0       0       0       0       0       0       0
      Locals:         4       0       0       0       0       0       0       0       0       0       0       0       0       0       0       0       0
      Temps:          0       0       0       0       0       0       0       0       0       0       0       0       0       0       0       0       0
      Totals:         8       0       0       0       0       0       0       0       0       0       0       0       0       0       0       0       0
Total ram usage:        8 bytes
 Hardware stack levels used:    1
 Hardware stack levels required when called:    7
 This function calls:
		_GetTickCopy
 This function is called by:
		_OpenUDPsocket
		_KeyPressedResetIdleTimer
		_NDCResetState
		_CheckFlashingLEDTimer
		_CheckWaitForCodeTimer
		_CheckHeartBeatTimer
		_CheckKeypad
		_CheckConnectionResponseWaitTimer
		_CheckConfigDataWaitTimer
		_SendConnectionRequest
		_SendHeartBeat
		_HandleConnectionResponse
		_HandleConfigData
		_HandleReceivedBytes
		_Beep
		_DHCPTask
		_MACIsTxReady
		_MACFlush
		_main
 This function uses a non-reentrant model


 *************** function _GetTickCopy *****************
 Defined at:
		line 139 in file "../framework/tcpip/src/common/tick.c"
 Parameters:    Size  Location     Type
		None
 Auto vars:     Size  Location     Type
		None
 Return value:  Size  Location     Type
		None               void
 Registers used:
		fsr2l, fsr2h
 Tracked objects:
		On entry : 
		On exit  : 
		Unchanged: 
 Data sizes:     COMRAM   BANK0   BANK1   BANK2   BANK3   BANK4   BANK5   BANK6   BANK7   BANK8   BANK9  BANK10  BANK11  BANK12  BANK13  BANK14  BANK15
      Params:         0       0       0       0       0       0       0       0       0       0       0       0       0       0       0       0       0
      Locals:         0       0       0       0       0       0       0       0       0       0       0       0       0       0       0       0       0
      Temps:          0       0       0       0       0       0       0       0       0       0       0       0       0       0       0       0       0
      Totals:         0       0       0       0       0       0       0       0       0       0       0       0       0       0       0       0       0
Total ram usage:        0 bytes
 Hardware stack levels used:    1
 Hardware stack levels required when called:    6
 This function calls:
		Nothing
 This function is called by:
		_TickGet
		_TickGetDiv256
 This function uses a non-reentrant model


 *************** function _InitializeBoard *****************
 Defined at:
		line 142 in file "../src/InitRutines.c"
 Parameters:    Size  Location     Type
  a               2   30[COMRAM] int 
 Auto vars:     Size  Location     Type
  macArray       18    0[BANK0 ] unsigned char [18]
  macStringInd    2   20[BANK0 ] int 
  arrayindex      2   18[BANK0 ] int 
 Return value:  Size  Location     Type
		None               void
 Registers used:
		wreg, fsr1l, fsr1h, fsr2l, fsr2h, status,2, status,0, prodl, prodh, cstack
 Tracked objects:
		On entry : 
		On exit  : 
		Unchanged: 
 Data sizes:     COMRAM   BANK0   BANK1   BANK2   BANK3   BANK4   BANK5   BANK6   BANK7   BANK8   BANK9  BANK10  BANK11  BANK12  BANK13  BANK14  BANK15
      Params:         2       0       0       0       0       0       0       0       0       0       0       0       0       0       0       0       0
      Locals:         0      22       0       0       0       0       0       0       0       0       0       0       0       0       0       0       0
      Temps:          1       0       0       0       0       0       0       0       0       0       0       0       0       0       0       0       0
      Totals:         3      22       0       0       0       0       0       0       0       0       0       0       0       0       0       0       0
Total ram usage:       25 bytes
 Hardware stack levels used:    1
 Hardware stack levels required when called:    7
 This function calls:
		_MiscHexStringToByte
 This function is called by:
		_main
 This function uses a non-reentrant model


 *************** function _MiscHexStringToByte *****************
 Defined at:
		line 63 in file "../src/Misc.c"
 Parameters:    Size  Location     Type
  value           1    wreg     PTR unsigned char 
		 -> InitializeBoard@macArray(18), 
 Auto vars:     Size  Location     Type
  value           1   28[COMRAM] PTR unsigned char 
		 -> InitializeBoard@macArray(18), 
  tmpByte         1   29[COMRAM] unsigned char 
  result          1   27[COMRAM] unsigned char 
 Return value:  Size  Location     Type
                  1    wreg      unsigned char 
 Registers used:
		wreg, fsr2l, fsr2h, status,2, status,0, prodl, prodh
 Tracked objects:
		On entry : 
		On exit  : 
		Unchanged: 
 Data sizes:     COMRAM   BANK0   BANK1   BANK2   BANK3   BANK4   BANK5   BANK6   BANK7   BANK8   BANK9  BANK10  BANK11  BANK12  BANK13  BANK14  BANK15
      Params:         0       0       0       0       0       0       0       0       0       0       0       0       0       0       0       0       0
      Locals:         3       0       0       0       0       0       0       0       0       0       0       0       0       0       0       0       0
      Temps:          0       0       0       0       0       0       0       0       0       0       0       0       0       0       0       0       0
      Totals:         3       0       0       0       0       0       0       0       0       0       0       0       0       0       0       0       0
Total ram usage:        3 bytes
 Hardware stack levels used:    1
 Hardware stack levels required when called:    6
 This function calls:
		Nothing
 This function is called by:
		_InitializeBoard
 This function uses a non-reentrant model


 *************** function _InitAppConfig *****************
 Defined at:
		line 292 in file "../src/InitRutines.c"
 Parameters:    Size  Location     Type
		None
 Auto vars:     Size  Location     Type
		None
 Return value:  Size  Location     Type
		None               void
 Registers used:
		wreg, fsr1l, fsr1h, fsr2l, fsr2h, status,2, status,0, tblptrl, tblptrh, tblptru, cstack
 Tracked objects:
		On entry : 
		On exit  : 
		Unchanged: 
 Data sizes:     COMRAM   BANK0   BANK1   BANK2   BANK3   BANK4   BANK5   BANK6   BANK7   BANK8   BANK9  BANK10  BANK11  BANK12  BANK13  BANK14  BANK15
      Params:         0       0       0       0       0       0       0       0       0       0       0       0       0       0       0       0       0
      Locals:         0       0       0       0       0       0       0       0       0       0       0       0       0       0       0       0       0
      Temps:          0       0       0       0       0       0       0       0       0       0       0       0       0       0       0       0       0
      Totals:         0       0       0       0       0       0       0       0       0       0       0       0       0       0       0       0       0
Total ram usage:        0 bytes
 Hardware stack levels used:    1
 Hardware stack levels required when called:    8
 This function calls:
		_FormatNetBIOSName
		_memcpy
 This function is called by:
		_main
 This function uses a non-reentrant model


 *************** function _memcpy *****************
 Defined at:
		line 11 in file "C:\Program Files (x86)\Microchip\xc8\v1.35\sources\common\memcpy.c"
 Parameters:    Size  Location     Type
  d1              2   27[COMRAM] PTR void 
		 -> UDPSocketInfo.remote(10), UDPSocketInfo(230), ARPResolve@packet(28), ARPProcess@packet(28), 
		 -> ARPSendPkt@packet(28), remoteNode(10), AppConfig.MyMACAddr(6), AppConfig(51), 
  s1              2   29[COMRAM] PTR const void 
		 -> header.SourceMACAddr.v(6), header.SourceMACAddr(6), remoteNode(10), STR_3(4), 
		 -> AppConfig.MyMACAddr(6), AppConfig(51), g_serializedMACAddress(6), RAM(3935), 
		 -> m_NBSNodeInfo(10), 
  n               2   31[COMRAM] unsigned int 
 Auto vars:     Size  Location     Type
  s               2   35[COMRAM] PTR const unsigned char 
		 -> header.SourceMACAddr.v(6), header.SourceMACAddr(6), remoteNode(10), STR_3(4), 
		 -> AppConfig.MyMACAddr(6), AppConfig(51), g_serializedMACAddress(6), RAM(3935), 
		 -> m_NBSNodeInfo(10), 
  d               2   33[COMRAM] PTR unsigned char 
		 -> UDPSocketInfo.remote(10), UDPSocketInfo(230), ARPResolve@packet(28), ARPProcess@packet(28), 
		 -> ARPSendPkt@packet(28), remoteNode(10), AppConfig.MyMACAddr(6), AppConfig(51), 
 Return value:  Size  Location     Type
                  2   27[COMRAM] PTR void 
 Registers used:
		wreg, fsr1l, fsr1h, fsr2l, fsr2h, status,2, status,0, tblptrl, tblptrh, tblptru
 Tracked objects:
		On entry : 
		On exit  : 
		Unchanged: 
 Data sizes:     COMRAM   BANK0   BANK1   BANK2   BANK3   BANK4   BANK5   BANK6   BANK7   BANK8   BANK9  BANK10  BANK11  BANK12  BANK13  BANK14  BANK15
      Params:         6       0       0       0       0       0       0       0       0       0       0       0       0       0       0       0       0
      Locals:         4       0       0       0       0       0       0       0       0       0       0       0       0       0       0       0       0
      Temps:          0       0       0       0       0       0       0       0       0       0       0       0       0       0       0       0       0
      Totals:        10       0       0       0       0       0       0       0       0       0       0       0       0       0       0       0       0
Total ram usage:       10 bytes
 Hardware stack levels used:    1
 Hardware stack levels required when called:    6
 This function calls:
		Nothing
 This function is called by:
		_InitAppConfig
		_ARPPut
		_UDPOpenEx
		_FindMatchingSocket
		_MACGetHeader
 This function uses a non-reentrant model


 *************** function _FormatNetBIOSName *****************
 Defined at:
		line 1272 in file "../framework/tcpip/src/common/helpers.c"
 Parameters:    Size  Location     Type
  Name            2   32[COMRAM] PTR unsigned char 
		 -> AppConfig(51), 
 Auto vars:     Size  Location     Type
  i               1   34[COMRAM] unsigned char 
 Return value:  Size  Location     Type
		None               void
 Registers used:
		wreg, fsr2l, fsr2h, status,2, status,0, cstack
 Tracked objects:
		On entry : 
		On exit  : 
		Unchanged: 
 Data sizes:     COMRAM   BANK0   BANK1   BANK2   BANK3   BANK4   BANK5   BANK6   BANK7   BANK8   BANK9  BANK10  BANK11  BANK12  BANK13  BANK14  BANK15
      Params:         2       0       0       0       0       0       0       0       0       0       0       0       0       0       0       0       0
      Locals:         1       0       0       0       0       0       0       0       0       0       0       0       0       0       0       0       0
      Temps:          0       0       0       0       0       0       0       0       0       0       0       0       0       0       0       0       0
      Totals:         3       0       0       0       0       0       0       0       0       0       0       0       0       0       0       0       0
Total ram usage:        3 bytes
 Hardware stack levels used:    1
 Hardware stack levels required when called:    7
 This function calls:
		_strupr
 This function is called by:
		_InitAppConfig
 This function uses a non-reentrant model


 *************** function _strupr *****************
 Defined at:
		line 1154 in file "../framework/tcpip/src/common/helpers.c"
 Parameters:    Size  Location     Type
  s               2   27[COMRAM] PTR unsigned char 
		 -> AppConfig(51), 
 Auto vars:     Size  Location     Type
  t               2   30[COMRAM] PTR unsigned char 
		 -> AppConfig(51), 
  c               1   29[COMRAM] unsigned char 
 Return value:  Size  Location     Type
                  2   27[COMRAM] PTR unsigned char 
 Registers used:
		wreg, fsr2l, fsr2h, status,2, status,0
 Tracked objects:
		On entry : 
		On exit  : 
		Unchanged: 
 Data sizes:     COMRAM   BANK0   BANK1   BANK2   BANK3   BANK4   BANK5   BANK6   BANK7   BANK8   BANK9  BANK10  BANK11  BANK12  BANK13  BANK14  BANK15
      Params:         2       0       0       0       0       0       0       0       0       0       0       0       0       0       0       0       0
      Locals:         3       0       0       0       0       0       0       0       0       0       0       0       0       0       0       0       0
      Temps:          0       0       0       0       0       0       0       0       0       0       0       0       0       0       0       0       0
      Totals:         5       0       0       0       0       0       0       0       0       0       0       0       0       0       0       0       0
Total ram usage:        5 bytes
 Hardware stack levels used:    1
 Hardware stack levels required when called:    6
 This function calls:
		Nothing
 This function is called by:
		_FormatNetBIOSName
 This function uses a non-reentrant model


 *************** function _DHCPEnable *****************
 Defined at:
		line 247 in file "../framework/tcpip/src/dhcp_client.c"
 Parameters:    Size  Location     Type
  vInterface      1    wreg     unsigned char 
 Auto vars:     Size  Location     Type
  vInterface      1    0[COMRAM] unsigned char 
 Return value:  Size  Location     Type
		None               void
 Registers used:
		wreg, status,2
 Tracked objects:
		On entry : 
		On exit  : 
		Unchanged: 
 Data sizes:     COMRAM   BANK0   BANK1   BANK2   BANK3   BANK4   BANK5   BANK6   BANK7   BANK8   BANK9  BANK10  BANK11  BANK12  BANK13  BANK14  BANK15
      Params:         0       0       0       0       0       0       0       0       0       0       0       0       0       0       0       0       0
      Locals:         0       0       0       0       0       0       0       0       0       0       0       0       0       0       0       0       0
      Temps:          0       0       0       0       0       0       0       0       0       0       0       0       0       0       0       0       0
      Totals:         0       0       0       0       0       0       0       0       0       0       0       0       0       0       0       0       0
Total ram usage:        0 bytes
 Hardware stack levels used:    1
 Hardware stack levels required when called:    6
 This function calls:
		Nothing
 This function is called by:
		_main
 This function uses a non-reentrant model


 *************** function _LowISR *****************
 Defined at:
		line 44 in file "../src/InitRutines.c"
 Parameters:    Size  Location     Type
		None
 Auto vars:     Size  Location     Type
		None
 Return value:  Size  Location     Type
		None               void
 Registers used:
		wreg, fsr2l, fsr2h, status,2, status,0, prodl, prodh, cstack
 Tracked objects:
		On entry : 
		On exit  : 
		Unchanged: 
 Data sizes:     COMRAM   BANK0   BANK1   BANK2   BANK3   BANK4   BANK5   BANK6   BANK7   BANK8   BANK9  BANK10  BANK11  BANK12  BANK13  BANK14  BANK15
      Params:         0       0       0       0       0       0       0       0       0       0       0       0       0       0       0       0       0
      Locals:         0       0       0       0       0       0       0       0       0       0       0       0       0       0       0       0       0
      Temps:          7       0       0       0       0       0       0       0       0       0       0       0       0       0       0       0       0
      Totals:         7       0       0       0       0       0       0       0       0       0       0       0       0       0       0       0       0
Total ram usage:        7 bytes
 Hardware stack levels used:    1
 Hardware stack levels required when called:    5
 This function calls:
		_RTC
		_TickUpdate
 This function is called by:
		Interrupt level 1
 This function uses a non-reentrant model


 *************** function _TickUpdate *****************
 Defined at:
		line 385 in file "../framework/tcpip/src/common/tick.c"
 Parameters:    Size  Location     Type
		None
 Auto vars:     Size  Location     Type
		None
 Return value:  Size  Location     Type
		None               void
 Registers used:
		wreg, status,2, status,0
 Tracked objects:
		On entry : 
		On exit  : 
		Unchanged: 
 Data sizes:     COMRAM   BANK0   BANK1   BANK2   BANK3   BANK4   BANK5   BANK6   BANK7   BANK8   BANK9  BANK10  BANK11  BANK12  BANK13  BANK14  BANK15
      Params:         0       0       0       0       0       0       0       0       0       0       0       0       0       0       0       0       0
      Locals:         0       0       0       0       0       0       0       0       0       0       0       0       0       0       0       0       0
      Temps:          0       0       0       0       0       0       0       0       0       0       0       0       0       0       0       0       0
      Totals:         0       0       0       0       0       0       0       0       0       0       0       0       0       0       0       0       0
Total ram usage:        0 bytes
 Hardware stack levels used:    1
 Hardware stack levels required when called:    1
 This function calls:
		Nothing
 This function is called by:
		_LowISR
 This function uses a non-reentrant model


 *************** function _RTC *****************
 Defined at:
		line 191 in file "../src/main.c"
 Parameters:    Size  Location     Type
		None
 Auto vars:     Size  Location     Type
		None
 Return value:  Size  Location     Type
		None               void
 Registers used:
		wreg, fsr2l, fsr2h, status,2, status,0, prodl, prodh, cstack
 Tracked objects:
		On entry : 
		On exit  : 
		Unchanged: 
 Data sizes:     COMRAM   BANK0   BANK1   BANK2   BANK3   BANK4   BANK5   BANK6   BANK7   BANK8   BANK9  BANK10  BANK11  BANK12  BANK13  BANK14  BANK15
      Params:         0       0       0       0       0       0       0       0       0       0       0       0       0       0       0       0       0
      Locals:         0       0       0       0       0       0       0       0       0       0       0       0       0       0       0       0       0
      Temps:          0       0       0       0       0       0       0       0       0       0       0       0       0       0       0       0       0
      Totals:         0       0       0       0       0       0       0       0       0       0       0       0       0       0       0       0       0
Total ram usage:        0 bytes
 Hardware stack levels used:    1
 Hardware stack levels required when called:    4
 This function calls:
		_BeepTimerUpdate
		_DoorIndicatorTimerUpdate
		_DoorSwitchTimerUpdate
		_NDCTick
 This function is called by:
		_LowISR
 This function uses a non-reentrant model


 *************** function _NDCTick *****************
 Defined at:
		line 124 in file "../src/NDC.c"
 Parameters:    Size  Location     Type
		None
 Auto vars:     Size  Location     Type
		None
 Return value:  Size  Location     Type
		None               void
 Registers used:
		wreg, status,2, status,0
 Tracked objects:
		On entry : 
		On exit  : 
		Unchanged: 
 Data sizes:     COMRAM   BANK0   BANK1   BANK2   BANK3   BANK4   BANK5   BANK6   BANK7   BANK8   BANK9  BANK10  BANK11  BANK12  BANK13  BANK14  BANK15
      Params:         0       0       0       0       0       0       0       0       0       0       0       0       0       0       0       0       0
      Locals:         0       0       0       0       0       0       0       0       0       0       0       0       0       0       0       0       0
      Temps:          0       0       0       0       0       0       0       0       0       0       0       0       0       0       0       0       0
      Totals:         0       0       0       0       0       0       0       0       0       0       0       0       0       0       0       0       0
Total ram usage:        0 bytes
 Hardware stack levels used:    1
 Hardware stack levels required when called:    1
 This function calls:
		Nothing
 This function is called by:
		_RTC
 This function uses a non-reentrant model


 *************** function _DoorSwitchTimerUpdate *****************
 Defined at:
		line 150 in file "../src/DoorSwitch.c"
 Parameters:    Size  Location     Type
		None
 Auto vars:     Size  Location     Type
		None
 Return value:  Size  Location     Type
		None               void
 Registers used:
		wreg, status,2, status,0
 Tracked objects:
		On entry : 
		On exit  : 
		Unchanged: 
 Data sizes:     COMRAM   BANK0   BANK1   BANK2   BANK3   BANK4   BANK5   BANK6   BANK7   BANK8   BANK9  BANK10  BANK11  BANK12  BANK13  BANK14  BANK15
      Params:         0       0       0       0       0       0       0       0       0       0       0       0       0       0       0       0       0
      Locals:         0       0       0       0       0       0       0       0       0       0       0       0       0       0       0       0       0
      Temps:          0       0       0       0       0       0       0       0       0       0       0       0       0       0       0       0       0
      Totals:         0       0       0       0       0       0       0       0       0       0       0       0       0       0       0       0       0
Total ram usage:        0 bytes
 Hardware stack levels used:    1
 Hardware stack levels required when called:    1
 This function calls:
		Nothing
 This function is called by:
		_RTC
 This function uses a non-reentrant model


 *************** function _DoorIndicatorTimerUpdate *****************
 Defined at:
		line 182 in file "../src/DoorIndicator.c"
 Parameters:    Size  Location     Type
		None
 Auto vars:     Size  Location     Type
		None
 Return value:  Size  Location     Type
		None               void
 Registers used:
		wreg, status,2, status,0
 Tracked objects:
		On entry : 
		On exit  : 
		Unchanged: 
 Data sizes:     COMRAM   BANK0   BANK1   BANK2   BANK3   BANK4   BANK5   BANK6   BANK7   BANK8   BANK9  BANK10  BANK11  BANK12  BANK13  BANK14  BANK15
      Params:         0       0       0       0       0       0       0       0       0       0       0       0       0       0       0       0       0
      Locals:         0       0       0       0       0       0       0       0       0       0       0       0       0       0       0       0       0
      Temps:          0       0       0       0       0       0       0       0       0       0       0       0       0       0       0       0       0
      Totals:         0       0       0       0       0       0       0       0       0       0       0       0       0       0       0       0       0
Total ram usage:        0 bytes
 Hardware stack levels used:    1
 Hardware stack levels required when called:    1
 This function calls:
		Nothing
 This function is called by:
		_RTC
 This function uses a non-reentrant model


 *************** function _BeepTimerUpdate *****************
 Defined at:
		line 47 in file "../src/Beep.c"
 Parameters:    Size  Location     Type
		None
 Auto vars:     Size  Location     Type
		None
 Return value:  Size  Location     Type
		None               void
 Registers used:
		wreg, fsr2l, fsr2h, status,2, status,0, prodl, prodh, cstack
 Tracked objects:
		On entry : 
		On exit  : 
		Unchanged: 
 Data sizes:     COMRAM   BANK0   BANK1   BANK2   BANK3   BANK4   BANK5   BANK6   BANK7   BANK8   BANK9  BANK10  BANK11  BANK12  BANK13  BANK14  BANK15
      Params:         0       0       0       0       0       0       0       0       0       0       0       0       0       0       0       0       0
      Locals:         0       0       0       0       0       0       0       0       0       0       0       0       0       0       0       0       0
      Temps:         12       0       0       0       0       0       0       0       0       0       0       0       0       0       0       0       0
      Totals:        12       0       0       0       0       0       0       0       0       0       0       0       0       0       0       0       0
Total ram usage:       12 bytes
 Hardware stack levels used:    1
 Hardware stack levels required when called:    3
 This function calls:
		i1_TickGet
 This function is called by:
		_RTC
 This function uses a non-reentrant model


 *************** function i1_TickGet *****************
 Defined at:
		line 249 in file "../framework/tcpip/src/common/tick.c"
 Parameters:    Size  Location     Type
		None
 Auto vars:     Size  Location     Type
  TickGet         4    4[COMRAM] unsigned long 
 Return value:  Size  Location     Type
                  4    0[COMRAM] unsigned long 
 Registers used:
		fsr2l, fsr2h, cstack
 Tracked objects:
		On entry : 
		On exit  : 
		Unchanged: 
 Data sizes:     COMRAM   BANK0   BANK1   BANK2   BANK3   BANK4   BANK5   BANK6   BANK7   BANK8   BANK9  BANK10  BANK11  BANK12  BANK13  BANK14  BANK15
      Params:         4       0       0       0       0       0       0       0       0       0       0       0       0       0       0       0       0
      Locals:         4       0       0       0       0       0       0       0       0       0       0       0       0       0       0       0       0
      Temps:          0       0       0       0       0       0       0       0       0       0       0       0       0       0       0       0       0
      Totals:         8       0       0       0       0       0       0       0       0       0       0       0       0       0       0       0       0
Total ram usage:        8 bytes
 Hardware stack levels used:    1
 Hardware stack levels required when called:    2
 This function calls:
		i1_GetTickCopy
 This function is called by:
		_BeepTimerUpdate
 This function uses a non-reentrant model


 *************** function i1_GetTickCopy *****************
 Defined at:
		line 139 in file "../framework/tcpip/src/common/tick.c"
 Parameters:    Size  Location     Type
		None
 Auto vars:     Size  Location     Type
		None
 Return value:  Size  Location     Type
		None               void
 Registers used:
		fsr2l, fsr2h
 Tracked objects:
		On entry : 
		On exit  : 
		Unchanged: 
 Data sizes:     COMRAM   BANK0   BANK1   BANK2   BANK3   BANK4   BANK5   BANK6   BANK7   BANK8   BANK9  BANK10  BANK11  BANK12  BANK13  BANK14  BANK15
      Params:         0       0       0       0       0       0       0       0       0       0       0       0       0       0       0       0       0
      Locals:         0       0       0       0       0       0       0       0       0       0       0       0       0       0       0       0       0
      Temps:          0       0       0       0       0       0       0       0       0       0       0       0       0       0       0       0       0
      Totals:         0       0       0       0       0       0       0       0       0       0       0       0       0       0       0       0       0
Total ram usage:        0 bytes
 Hardware stack levels used:    1
 Hardware stack levels required when called:    1
 This function calls:
		Nothing
 This function is called by:
		i1_TickGet
 This function uses a non-reentrant model


 *************** function _HighISR *****************
 Defined at:
		line 50 in file "../src/InitRutines.c"
 Parameters:    Size  Location     Type
		None
 Auto vars:     Size  Location     Type
		None
 Return value:  Size  Location     Type
		None               void
 Registers used:
		wreg, status,2, status,0
 Tracked objects:
		On entry : 
		On exit  : 
		Unchanged: 
 Data sizes:     COMRAM   BANK0   BANK1   BANK2   BANK3   BANK4   BANK5   BANK6   BANK7   BANK8   BANK9  BANK10  BANK11  BANK12  BANK13  BANK14  BANK15
      Params:         0       0       0       0       0       0       0       0       0       0       0       0       0       0       0       0       0
      Locals:         0       0       0       0       0       0       0       0       0       0       0       0       0       0       0       0       0
      Temps:          0       0       0       0       0       0       0       0       0       0       0       0       0       0       0       0       0
      Totals:         0       0       0       0       0       0       0       0       0       0       0       0       0       0       0       0       0
Total ram usage:        0 bytes
 Hardware stack levels used:    1
 This function calls:
		Nothing
 This function is called by:
		Interrupt level 2
 This function uses a non-reentrant model



MODULE INFORMATION

Module		Function		Class		Link	Load	Size
../src/InitRutines.c
		_LowISR        		CODE           	0018	0000	71
		_GetWiegandCode		CODE           	4A6E	0000	79
		_InitAppConfig 		CODE           	3B78	0000	163
		_InitializeBoard		CODE           	3762	0000	189
		_HighISR       		CODE           	0008	0000	133

../src/InitRutines.c estimated size: 635

../framework/tcpip/src/icmp.c
		_ICMPProcess   		CODE           	397E	0000	173

../framework/tcpip/src/icmp.c estimated size: 173

C:\Program Files (x86)\Microchip\xc8\v1.35\sources\common\awdiv.c
		___awdiv       		CODE           	40E4	0000	121

C:\Program Files (x86)\Microchip\xc8\v1.35\sources\common\awdiv.c estimated size: 121

../framework/tcpip/src/common/helpers.c
		_LFSRRand      		CODE           	3E58	0000	141
		_strupr        		CODE           	4DEA	0000	57
		_swaps         		CODE           	5284	0000	31
		_CalcIPChecksum		CODE           	3DCC	0000	141
		_LFSRSeedRand  		CODE           	4E58	0000	53
		_GenerateRandomDWORD		CODE           	2984	0000	287
		_FormatNetBIOSName		CODE           	4832	0000	87

../framework/tcpip/src/common/helpers.c estimated size: 797

../framework/tcpip/src/eth97j60.c
		_MACPut        		CODE           	548C	0000	13
		_MACFlush      		CODE           	520A	0000	33
		_MACSetReadPtr 		CODE           	5310	0000	27
		_MACGetHeader  		CODE           	381E	0000	179
		_MACCalcRxChecksum		CODE           	42B2	0000	105
		_MACSetReadPtrInRx		CODE           	4E22	0000	55
		_MACInit       		CODE           	352A	0000	191
		_MACGetArray   		CODE           	4B0A	0000	77
		_MACIsMemCopyDone		CODE           	54C6	0000	7
		_MACMemCopyAsync		CODE           	2854	0000	305
		_WritePHYReg   		CODE           	4EBC	0000	47
		_MACGet        		CODE           	54D8	0000	3
		_CalcIPBufferChecksum		CODE           	3152	0000	209
		_MACIsLinked   		CODE           	53FE	0000	21
		_ReadPHYReg    		CODE           	4F46	0000	47
		_MACPutHeader  		CODE           	4782	0000	91
		_MACSetWritePtr		CODE           	54AC	0000	11
		_MACIsTxReady  		CODE           	5184	0000	37
		_MACDiscardRx  		CODE           	4DB0	0000	59
		_MACPutArray   		CODE           	50EC	0000	39

../framework/tcpip/src/eth97j60.c estimated size: 1556

../framework/tcpip/src/dhcp_client.c
		_DHCPTask      		CODE           	100C	0000	1637
		_DHCPDisable   		CODE           	53EA	0000	21
		__DHCPSend     		CODE           	1ED0	0000	479
		_DHCPEnable    		CODE           	535E	0000	27
		_DHCPIsBound   		CODE           	54BE	0000	9
		_DHCPInit      		CODE           	4D3A	0000	61
		__DHCPReceive  		CODE           	1C5A	0000	631

../framework/tcpip/src/dhcp_client.c estimated size: 2865

../src/DoorSwitch.c
		_IsDoorSwitchPressed		CODE           	5426	0000	19
		_DoorSwitchTimerUpdate		CODE           	53A8	0000	25
		_DoorSwitchUpdateConfig		CODE           	3EE4	0000	137
		_ProcessDoorSwitchIsReleased		CODE           	54CC	0000	5
		_ProcessStateDoorSwitchPressedTooLong		CODE           	52DC	0000	27
		_ProcessStateDoorSwitchPressed		CODE           	509E	0000	41
		_ProcessDoorSwitchIsPressed		CODE           	4CBC	0000	65
		_ProcessStateDoorSwitchIdle		CODE           	546C	0000	17
		_ProcessDoorSwitch		CODE           	52C0	0000	29

../src/DoorSwitch.c estimated size: 365

../framework/tcpip/src/common/tick.c
		_TickInit      		CODE           	545C	0000	17
		_TickGet       		CODE           	5138	0000	39
		_TickGetDiv256 		CODE           	50C6	0000	39
		_TickUpdate    		CODE           	5412	0000	21
		_GetTickCopy   		CODE           	504A	0000	43

../framework/tcpip/src/common/tick.c estimated size: 159

../src/NDC.c
		_SendDoorStatus		CODE           	3F6C	0000	127
		_NDCFSM        		CODE           	36A6	0000	189
		_setDoorOpen   		CODE           	4FCC	0000	43
		_SendDoorOpenEvent		CODE           	466E	0000	93
		_SendDeviceReadySignal		CODE           	4888	0000	85
		_SendDoorSwitchPressedEvent		CODE           	4440	0000	95
		_CheckWaitForCodeTimer		CODE           	2EB6	0000	229
		_NDCTick       		CODE           	5390	0000	25
		_CheckIfFirstTimeConnection		CODE           	54A2	0000	11
		_SendDoorClosedEvent		CODE           	4612	0000	93
		_CheckConfigDataWaitTimer		CODE           	4BA2	0000	77
		_OpenUDPsocket 		CODE           	3C1A	0000	155
		_SendDoorOpenTooLongEvent		CODE           	45B6	0000	93
		_CheckDoorTimer		CODE           	5112	0000	39
		_SendDoorTimerExpiredEvent		CODE           	44FC	0000	95
		_SendGetConfigData		CODE           	48DC	0000	85
		_NDCGetRelayActiveTime		CODE           	5498	0000	11
		_NDCInitData   		CODE           	5248	0000	31
		_HandleReceivedBytes		CODE           	1984	0000	727
		_SendHeartBeat 		CODE           	3AD2	0000	167
		_HandleConnectionResponse		CODE           	43E0	0000	97
		_KeyPressedResetIdleTimer		CODE           	4A20	0000	79
		_CheckFlashingLEDTimer		CODE           	4246	0000	109
		_CheckKeypad   		CODE           	1670	0000	789
		_SendVersionString		CODE           	35E8	0000	191
		_SendFirstConnectionMadeEvent		CODE           	449E	0000	95
		_HandleConfigData		CODE           	20AE	0000	469
		_CheckConnectionResponseWaitTimer		CODE           	4ABC	0000	79
		_SendUDPMessage		CODE           	46CA	0000	93
		_SendConnectionRequest		CODE           	38D0	0000	175
		_SendDoorSwitchPressedTooLongEvent		CODE           	455A	0000	93
		_CheckHeartBeatTimer		CODE           	4930	0000	83
		_NDCResetState 		CODE           	51A8	0000	35
		_InitStartState		CODE           	5266	0000	31
		_isOpenDoorFlag		CODE           	54D0	0000	5

../src/NDC.c estimated size: 4893

C:\Program Files (x86)\Microchip\xc8\v1.35\sources\common\memset.c
		_memset        		CODE           	5020	0000	43

C:\Program Files (x86)\Microchip\xc8\v1.35\sources\common\memset.c estimated size: 43

../framework/tcpip/src/common/spi_eeprom.c
		_XEEInit       		CODE           	53C0	0000	23

../framework/tcpip/src/common/spi_eeprom.c estimated size: 23

../src/Misc.c
		_MiscHexStringToByte		CODE           	4982	0000	81

../src/Misc.c estimated size: 81

C:\Program Files (x86)\Microchip\xc8\v1.35\sources\common\lwmod.c
		___lwmod       		CODE           	4CFC	0000	63

C:\Program Files (x86)\Microchip\xc8\v1.35\sources\common\lwmod.c estimated size: 63

../framework/tcpip/src/ip.c
		_IPPutHeader   		CODE           	3A2A	0000	169
		_IPGetHeader   		CODE           	2F9A	0000	229
		_IPSetRxBuffer 		CODE           	544A	0000	19
		_SwapIPHeader  		CODE           	4068	0000	125

../framework/tcpip/src/ip.c estimated size: 542

C:\Program Files (x86)\Microchip\xc8\v1.35\sources\common\llmod.c
		___llmod       		CODE           	437E	0000	99

C:\Program Files (x86)\Microchip\xc8\v1.35\sources\common\llmod.c estimated size: 99

../src/DoorIndicator.c
		_ProcessStateDoorIndicatorClosed		CODE           	547C	0000	17
		_ProcessDoorIndicatorIsClosed		CODE           	54D4	0000	5
		_DoorIndicatorTimerUpdate		CODE           	4FA0	0000	45
		_DoorIndicatorGetStatus		CODE           	54B6	0000	9
		_ProcessDoorIndicatorIsOpen		CODE           	51EA	0000	33
		_ProcessStateDoorIndicatorOpenTooLong		CODE           	522A	0000	31
		_ProcessStateDoorIndicatorOpen		CODE           	4F74	0000	45
		_isDoorIndicatorOpen		CODE           	4D76	0000	59
		_DoorIndicatorUpdateConfig		CODE           	3D40	0000	141
		_ProcessDoorIndicator		CODE           	52F6	0000	27

../src/DoorIndicator.c estimated size: 412

C:\Program Files (x86)\Microchip\xc8\v1.35\sources\common\ltoa.c
		_ltoa          		CODE           	4BEE	0000	73
		_ultoa         		CODE           	2DC6	0000	241

C:\Program Files (x86)\Microchip\xc8\v1.35\sources\common\ltoa.c estimated size: 314

shared
		i1_TickGet     		CODE           	515E	0000	39
		__initialization		CODE           	3CB4	0000	131
		i1_GetTickCopy 		CODE           	5074	0000	43

shared estimated size: 213

../framework/tcpip/src/common/stack_task.c
		_StackTask     		CODE           	2282	0000	403
		_StackInit     		CODE           	49D2	0000	79

../framework/tcpip/src/common/stack_task.c estimated size: 482

../framework/tcpip/src/udp.c
		_UDPInit       		CODE           	53D6	0000	21
		_UDPGetArray   		CODE           	431A	0000	101
		_UDPIsPutReady 		CODE           	4C7A	0000	67
		_UDPGet        		CODE           	4FF6	0000	43
		_UDPOpenEx     		CODE           	2710	0000	325
		_UDPSetTxBuffer		CODE           	532A	0000	27
		_UDPDiscard    		CODE           	5438	0000	19
		_FindMatchingSocket		CODE           	2CC4	0000	259
		_UDPClose      		CODE           	4B56	0000	77
		_UDPPutArray   		CODE           	4726	0000	93
		_UDPProcess    		CODE           	2AA2	0000	285
		_UDPPut        		CODE           	4E8C	0000	49
		_UDPFlush      		CODE           	2596	0000	379
		_UDPTask       		CODE           	2414	0000	387
		_UDPIsGetReady 		CODE           	4F18	0000	47
		_UDPSetRxBuffer		CODE           	5344	0000	27

../framework/tcpip/src/udp.c estimated size: 2206

C:\Program Files (x86)\Microchip\xc8\v1.35\sources\common\memcpy.c
		_memcpy        		CODE           	47DC	0000	87

C:\Program Files (x86)\Microchip\xc8\v1.35\sources\common\memcpy.c estimated size: 87

../framework/tcpip/src/common/delay.c
		_DelayMs       		CODE           	4C36	0000	69

../framework/tcpip/src/common/delay.c estimated size: 69

../src/Beep.c
		_BeepTimerUpdate		CODE           	346A	0000	193
		_Beep          		CODE           	4EEA	0000	47

../src/Beep.c estimated size: 240

../src/main.c
		_main          		CODE           	307E	0000	213
		_RTC           		CODE           	52A2	0000	31

../src/main.c estimated size: 244

C:\Program Files (x86)\Microchip\xc8\v1.35\sources\common\lldiv.c
		___lldiv       		CODE           	415C	0000	119

C:\Program Files (x86)\Microchip\xc8\v1.35\sources\common\lldiv.c estimated size: 119

../framework/tcpip/src/arp.c
		_ARPInit       		CODE           	5378	0000	25
		_ARPResolve    		CODE           	3222	0000	197
		_ARPProcess    		CODE           	2BBE	0000	263
		_ARPIsResolved 		CODE           	32E6	0000	197
		_ARPPut        		CODE           	33AA	0000	193
		_SwapARPPacket 		CODE           	41D2	0000	117

../framework/tcpip/src/arp.c estimated size: 992

